                              1 ;;; gcc for m6809 : Mar 17 2019 12:45:32
                              2 ;;; 4.3.6 (gcc6809)
                              3 ;;; ABI version 1
                              4 ;;; -mabi=bx -mint8 -fomit-frame-pointer -O3
                              5 	.module	string.enr.c
                              6 ; GNU C (GCC) version 4.3.6 (gcc6809) (m6809-unknown-none)
                              7 ;	compiled by GNU C version 7.4.0, GMP version 4.3.2, MPFR version 2.4.2.
                              8 ; GGC heuristics: --param ggc-min-expand=100 --param ggc-min-heapsize=131072
                              9 ; options passed:  -O3 -fno-ipa-reference -ftree-ter -fno-gcse
                             10 ; -fverbose-asm -W -Wextra -Wconversion -Werror -fomit-frame-pointer
                             11 ; -fno-toplevel-reorder -mint8 -msoft-reg-count=0 -std=gnu99
                             12 ; -fno-time-report -IC:\Dev\Vide\C\PeerC\vectrex\include -D__RUM_FUNCTION=1
                             13 ; -DOMMIT_FRAMEPOINTER=1 -IC:\Dev\Vide\projects\Telengard\include
                             14 ; C:\Dev\Vide\projects\Telengard\source\bank1\string.enr.c
                             15 ; options enabled:  -falign-loops -fargument-alias -fauto-inc-dec
                             16 ; -fbranch-count-reg -fcaller-saves -fcommon -fcprop-registers
                             17 ; -fcrossjumping -fcse-follow-jumps -fdefer-pop
                             18 ; -fdelete-null-pointer-checks -fearly-inlining
                             19 ; -feliminate-unused-debug-types -fexpensive-optimizations
                             20 ; -fforward-propagate -ffunction-cse -fgcse-after-reload -fgcse-lm
                             21 ; -fguess-branch-probability -fident -fif-conversion -fif-conversion2
                             22 ; -finline-functions -finline-functions-called-once
                             23 ; -finline-small-functions -fipa-pure-const -fivopts -fkeep-static-consts
                             24 ; -fleading-underscore -fmath-errno -fmerge-constants -fmerge-debug-strings
                             25 ; -fmove-loop-invariants -fomit-frame-pointer -foptimize-register-move
                             26 ; -foptimize-sibling-calls -fpcc-struct-return -fpeephole -fpeephole2
                             27 ; -fpredictive-commoning -fregmove -freorder-blocks -freorder-functions
                             28 ; -frerun-cse-after-loop -fsched-interblock -fsched-spec
                             29 ; -fsched-stalled-insns-dep -fsigned-zeros -fsplit-ivs-in-unroller
                             30 ; -fsplit-wide-types -fstrict-aliasing -fstrict-overflow -fthread-jumps
                             31 ; -ftrapping-math -ftree-ccp -ftree-ch -ftree-copy-prop -ftree-copyrename
                             32 ; -ftree-dce -ftree-dominator-opts -ftree-dse -ftree-fre -ftree-loop-im
                             33 ; -ftree-loop-ivcanon -ftree-loop-optimize -ftree-parallelize-loops=
                             34 ; -ftree-pre -ftree-reassoc -ftree-salias -ftree-scev-cprop -ftree-sink
                             35 ; -ftree-sra -ftree-store-ccp -ftree-ter -ftree-vect-loop-version
                             36 ; -ftree-vectorize -ftree-vrp -funit-at-a-time -funswitch-loops
                             37 ; -fverbose-asm -fzero-initialized-in-bss
                             38 ; Compiler executable checksum: 8f282e2d9663ae6148257c524e608c63
                             39 	.area	.text
                             40 	.globl	_vstrcpy
   0000                      41 _vstrcpy:
   0000 34 40         [ 6]   42 	pshs	u	;
   0002 33 84         [ 4]   43 	leau	,x	; dest, dest
   0004 AE 64         [ 6]   44 	ldx	4,s	; source, source
   0006 E6 84         [ 4]   45 	ldb	,x	; prephitmp.45,* source
   0008                      46 L3:
   0008 E7 C0         [ 6]   47 	stb	,u+	; prephitmp.45,
   000A 30 01         [ 5]   48 	leax	1,x	; source,, source
   000C E6 84         [ 4]   49 	ldb	,x	; prephitmp.45,* source
   000E 27 04         [ 3]   50 	beq	L2	;
   0010 C1 80         [ 2]   51 	cmpb	#-128	;cmpqi:	; prephitmp.45,
   0012 26 F4         [ 3]   52 	bne	L3	;
   0014                      53 L2:
   0014 C6 80         [ 2]   54 	ldb	#-128	;,
   0016 E7 C4         [ 4]   55 	stb	,u	;,* dest
   0018 35 C0         [ 7]   56 	puls	u,pc	;
                             57 	.globl	_printMessage
   001A                      58 _printMessage:
   001A 34 40         [ 6]   59 	pshs	u	;
   001C 33 84         [ 4]   60 	leau	,x	; m, m
   001E F6 00 00      [ 5]   61 	ldb	_msgLine	; msgLine.1, msgLine
   0021 C1 03         [ 2]   62 	cmpb	#3	;cmpqi:	; msgLine.1,
   0023 27 13         [ 3]   63 	beq	L9	;
   0025 1D            [ 2]   64 	sex		;extendqihi2: R:b -> R:d	; msgLine.1, msgLine.1
   0026 58            [ 2]   65 	aslb	;
   0027 49            [ 2]   66 	rola	;
   0028 1F 01         [ 6]   67 	tfr	d,x	; msgLine.1, tmp31
   002A 34 40         [ 6]   68 	pshs	u	; m
   002C AE 89 00 00   [ 9]   69 	ldx	_msg,x	;, msg
   0030 BD 00 00      [ 8]   70 	jsr	_vstrcpy
   0033 7C 00 00      [ 7]   71 	inc	_msgLine	; msgLine
   0036 32 62         [ 5]   72 	leas	2,s	;,,
   0038                      73 L9:
   0038 35 C0         [ 7]   74 	puls	u,pc	;
                             75 	.globl	_removeSpaces
   003A                      76 _removeSpaces:
   003A 34 40         [ 6]   77 	pshs	u	;
   003C 33 84         [ 4]   78 	leau	,x	; pointer, pointer
   003E E6 84         [ 4]   79 	ldb	,x	;,* pointer
   0040 C1 20         [ 2]   80 	cmpb	#32	;cmpqi:	;,
   0042 26 12         [ 3]   81 	bne	L12	;
   0044                      82 L16:
   0044 30 C4         [ 4]   83 	leax	,u	; tmpPointer, pointer
   0046                      84 L13:
   0046 30 01         [ 5]   85 	leax	1,x	; tmpPointer,, tmpPointer
   0048 E6 84         [ 4]   86 	ldb	,x	; D.3035,* tmpPointer
   004A E7 1F         [ 5]   87 	stb	-1,x	; D.3035,
   004C 26 F8         [ 3]   88 	bne	L13	;
   004E 6F 84         [ 6]   89 	clr	,x	;* tmpPointer
   0050 E6 C4         [ 4]   90 	ldb	,u	;,* pointer
   0052 C1 20         [ 2]   91 	cmpb	#32	;cmpqi:	;,
   0054 27 EE         [ 3]   92 	beq	L16	;
   0056                      93 L12:
   0056 30 C4         [ 4]   94 	leax	,u	;, pointer
   0058 35 C0         [ 7]   95 	puls	u,pc	;
                             96 	.globl	_itoa
   005A                      97 _itoa:
   005A 34 60         [ 7]   98 	pshs	y,u	;
   005C 32 7E         [ 5]   99 	leas	-2,s	;,,
   005E E7 E4         [ 4]  100 	stb	,s	; n, n
   0060 C1 C7         [ 2]  101 	cmpb	#-57	;cmpqi:	; n,
   0062 23 4C         [ 3]  102 	bls	L18	;
   0064 CB 38         [ 2]  103 	addb	#56	; n,
   0066 E7 E4         [ 4]  104 	stb	,s	; n, n
   0068 10 8E 32 30   [ 4]  105 	ldy	#12848	; digit,
   006C 6F 61         [ 7]  106 	clr	1,s	; useSpace
   006E CE 32 38      [ 3]  107 	ldu	#12856	; digit.113,
   0071 8E 32 34      [ 3]  108 	ldx	#12852	; digit.112,
   0074                     109 L19:
   0074 C1 4F         [ 2]  110 	cmpb	#79	;cmpqi:	;,
   0076 23 2E         [ 3]  111 	bls	L21	;
   0078 CB B0         [ 2]  112 	addb	#-80	;,
   007A E7 E4         [ 4]  113 	stb	,s	;, n
   007C 30 C4         [ 4]  114 	leax	,u	; digit.112, digit.113
   007E                     115 L22:
   007E C1 13         [ 2]  116 	cmpb	#19	;cmpqi:	;,
   0080 23 06         [ 3]  117 	bls	L24	;
   0082 CB EC         [ 2]  118 	addb	#-20	;,
   0084 E7 E4         [ 4]  119 	stb	,s	;, n
   0086 30 02         [ 5]  120 	leax	2,x	; digit.112,, digit.112
   0088                     121 L24:
   0088 C1 09         [ 2]  122 	cmpb	#9	;cmpqi:	;,
   008A 23 3A         [ 3]  123 	bls	L25	;
   008C CB F6         [ 2]  124 	addb	#-10	;,
   008E E7 E4         [ 4]  125 	stb	,s	;, n
   0090 30 01         [ 5]  126 	leax	1,x	; digit.112,, digit.112
   0092                     127 L26:
   0092 BF 00 00      [ 6]  128 	stx	_stringBuffer4	; digit.112,
   0095 E6 E4         [ 4]  129 	ldb	,s	;, n
   0097 CB 30         [ 2]  130 	addb	#48	;,
   0099 F7 00 02      [ 5]  131 	stb	_stringBuffer4+2	;, stringBuffer4
   009C 7F 00 03      [ 7]  132 	clr	_stringBuffer4+3	; stringBuffer4
   009F 8E 00 00      [ 3]  133 	ldx	#_stringBuffer4	;,
   00A2 32 62         [ 5]  134 	leas	2,s	;,,
   00A4 35 E0         [ 8]  135 	puls	y,u,pc	;
   00A6                     136 L21:
   00A6 C1 27         [ 2]  137 	cmpb	#39	;cmpqi:	;,
   00A8 23 3F         [ 3]  138 	bls	L28	;
   00AA CB D8         [ 2]  139 	addb	#-40	;,
   00AC E7 E4         [ 4]  140 	stb	,s	;, n
   00AE 20 CE         [ 3]  141 	bra	L22	;
   00B0                     142 L18:
   00B0 C1 63         [ 2]  143 	cmpb	#99	;cmpqi:	;,
   00B2 23 22         [ 3]  144 	bls	L29	;
   00B4 CB 9C         [ 2]  145 	addb	#-100	;,
   00B6 E7 E4         [ 4]  146 	stb	,s	;, n
   00B8 10 8E 31 30   [ 4]  147 	ldy	#12592	; digit,
   00BC 6F 61         [ 7]  148 	clr	1,s	; useSpace
   00BE CE 31 38      [ 3]  149 	ldu	#12600	; digit.113,
   00C1 8E 31 34      [ 3]  150 	ldx	#12596	; digit.112,
   00C4 20 AE         [ 3]  151 	bra	L19	;
   00C6                     152 L25:
   00C6 8C 20 30      [ 4]  153 	cmpx	#8240	;cmphi:	; digit.112,
   00C9 26 C7         [ 3]  154 	bne	L26	;
   00CB E6 61         [ 5]  155 	ldb	1,s	;, useSpace
   00CD C1 01         [ 2]  156 	cmpb	#1	;cmpqi:	;,
   00CF 26 C1         [ 3]  157 	bne	L26	;
   00D1 8E 20 20      [ 3]  158 	ldx	#8224	; digit.112,
   00D4 20 BC         [ 3]  159 	bra	L26	;
   00D6                     160 L29:
   00D6 10 8E 20 30   [ 4]  161 	ldy	#8240	; digit,
   00DA C6 01         [ 2]  162 	ldb	#1	;,
   00DC E7 61         [ 5]  163 	stb	1,s	;, useSpace
   00DE CE 20 38      [ 3]  164 	ldu	#8248	; digit.113,
   00E1 8E 20 34      [ 3]  165 	ldx	#8244	; digit.112,
   00E4 E6 E4         [ 4]  166 	ldb	,s	;, n
   00E6 16 FF 8B      [ 5]  167 	lbra	L19	;
   00E9                     168 L28:
   00E9 30 A4         [ 4]  169 	leax	,y	; digit.112, digit
   00EB E6 E4         [ 4]  170 	ldb	,s	;, n
   00ED 16 FF 8E      [ 5]  171 	lbra	L22	;
                            172 	.globl	_itoa_s
   00F0                     173 _itoa_s:
   00F0 BD 00 5A      [ 8]  174 	jsr	_itoa
   00F3 8E 00 00      [ 3]  175 	ldx	#_stringBuffer4	;,
   00F6 7E 00 3A      [ 4]  176 	jmp	_removeSpaces	;
                            177 	.globl	__fs
   00F9                     178 __fs:
   00F9 34 60         [ 7]  179 	pshs	y,u	;
   00FB 32 79         [ 5]  180 	leas	-7,s	;,,
   00FD AF 62         [ 6]  181 	stx	2,s	; s1, s1
   00FF 30 01         [ 5]  182 	leax	1,x	; s1,, s1
   0101 AF E4         [ 5]  183 	stx	,s	; s1, s1.168
   0103 30 1F         [ 5]  184 	leax	-1,x	; s1,, s1
   0105 E6 80         [ 6]  185 	ldb	,x+	;,
   0107 E7 66         [ 5]  186 	stb	6,s	;, c.167
   0109 10 8E 00 00   [ 4]  187 	ldy	#_stringBuffer40	; to,
   010D C1 25         [ 2]  188 	cmpb	#37	;cmpqi:	;,
   010F 27 2E         [ 3]  189 	beq	L34	;
   0111 CE 00 00      [ 3]  190 	ldu	#0	; ivtmp.163,
   0114 20 02         [ 3]  191 	bra	L35	;
   0116                     192 L43:
   0116 EE 64         [ 6]  193 	ldu	4,s	; ivtmp.163, ivtmp.157
   0118                     194 L35:
   0118 E6 66         [ 5]  195 	ldb	6,s	;, c.167
   011A E7 C9 00 00   [ 8]  196 	stb	_stringBuffer40,u	;,
   011E 30 41         [ 5]  197 	leax	1,u	;,, ivtmp.163
   0120 AF 64         [ 6]  198 	stx	4,s	;, ivtmp.157
   0122 31 89 00 00   [ 8]  199 	leay	_stringBuffer40,x	; to,,
   0126 EC 62         [ 6]  200 	ldd	2,s	;, s1
   0128 30 CB         [ 8]  201 	leax	d,u	; tmp40,, ivtmp.163
   012A E6 01         [ 5]  202 	ldb	1,x	;,
   012C E7 66         [ 5]  203 	stb	6,s	;, c.167
   012E 1F 30         [ 6]  204 	tfr	u,d	; ivtmp.163, tmp41
   0130 C3 00 02      [ 4]  205 	addd	#2; addhi3,3	; tmp41,
   0133 AE 62         [ 6]  206 	ldx	2,s	;, s1
   0135 30 8B         [ 8]  207 	leax	d,x	;, tmp41,
   0137 AF E4         [ 5]  208 	stx	,s	;, s1.168
   0139 E6 66         [ 5]  209 	ldb	6,s	;, c.167
   013B C1 25         [ 2]  210 	cmpb	#37	;cmpqi:	;,
   013D 26 D7         [ 3]  211 	bne	L43	;
   013F                     212 L34:
   013F AE 6D         [ 6]  213 	ldx	13,s	;, s2
   0141 E6 84         [ 4]  214 	ldb	,x	; c.165,
   0143 27 08         [ 3]  215 	beq	L36	;
   0145 30 01         [ 5]  216 	leax	1,x	; s2.166,,
   0147                     217 L37:
   0147 E7 A0         [ 6]  218 	stb	,y+	; c.165,
   0149 E6 80         [ 6]  219 	ldb	,x+	; c.165,
   014B 26 FA         [ 3]  220 	bne	L37	;
   014D                     221 L36:
   014D EE E4         [ 5]  222 	ldu	,s	;, s1.168
   014F E6 C4         [ 4]  223 	ldb	,u	; c,
   0151 27 08         [ 3]  224 	beq	L38	;
   0153 30 41         [ 5]  225 	leax	1,u	; s1.164,,
   0155                     226 L39:
   0155 E7 A0         [ 6]  227 	stb	,y+	; c,
   0157 E6 80         [ 6]  228 	ldb	,x+	; c,
   0159 26 FA         [ 3]  229 	bne	L39	;
   015B                     230 L38:
   015B C6 80         [ 2]  231 	ldb	#-128	;,
   015D E7 A4         [ 4]  232 	stb	,y	;,* to
   015F 8E 00 00      [ 3]  233 	ldx	#_stringBuffer40	;,
   0162 32 67         [ 5]  234 	leas	7,s	;,,
   0164 35 E0         [ 8]  235 	puls	y,u,pc	;
                            236 	.globl	__fi_s
   0166                     237 __fi_s:
   0166 34 60         [ 7]  238 	pshs	y,u	;
   0168 32 77         [ 5]  239 	leas	-9,s	;,,
   016A AF 62         [ 6]  240 	stx	2,s	; s1, s1
   016C BD 00 5A      [ 8]  241 	jsr	_itoa
   016F 8E 00 00      [ 3]  242 	ldx	#_stringBuffer4	;,
   0172 BD 00 3A      [ 8]  243 	jsr	_removeSpaces
   0175 AF 64         [ 6]  244 	stx	4,s	;, D.3977
   0177 AE 62         [ 6]  245 	ldx	2,s	;, s1
   0179 30 01         [ 5]  246 	leax	1,x	;,,
   017B AF E4         [ 5]  247 	stx	,s	;, s1.212
   017D 30 1F         [ 5]  248 	leax	-1,x	;,,
   017F E6 80         [ 6]  249 	ldb	,x+	;,
   0181 E7 68         [ 5]  250 	stb	8,s	;, c.211
   0183 10 8E 00 00   [ 4]  251 	ldy	#_stringBuffer40	; to,
   0187 C1 25         [ 2]  252 	cmpb	#37	;cmpqi:	;,
   0189 27 2E         [ 3]  253 	beq	L46	;
   018B CE 00 00      [ 3]  254 	ldu	#0	; ivtmp.202,
   018E 20 02         [ 3]  255 	bra	L47	;
   0190                     256 L55:
   0190 EE 66         [ 6]  257 	ldu	6,s	; ivtmp.202, ivtmp.209
   0192                     258 L47:
   0192 E6 68         [ 5]  259 	ldb	8,s	;, c.211
   0194 E7 C9 00 00   [ 8]  260 	stb	_stringBuffer40,u	;,
   0198 30 41         [ 5]  261 	leax	1,u	;,, ivtmp.202
   019A AF 66         [ 6]  262 	stx	6,s	;, ivtmp.209
   019C 31 89 00 00   [ 8]  263 	leay	_stringBuffer40,x	; to,,
   01A0 EC 62         [ 6]  264 	ldd	2,s	;, s1
   01A2 30 CB         [ 8]  265 	leax	d,u	; tmp41,, ivtmp.202
   01A4 E6 01         [ 5]  266 	ldb	1,x	;,
   01A6 E7 68         [ 5]  267 	stb	8,s	;, c.211
   01A8 1F 30         [ 6]  268 	tfr	u,d	; ivtmp.202, tmp42
   01AA C3 00 02      [ 4]  269 	addd	#2; addhi3,3	; tmp42,
   01AD AE 62         [ 6]  270 	ldx	2,s	;, s1
   01AF 30 8B         [ 8]  271 	leax	d,x	;, tmp42,
   01B1 AF E4         [ 5]  272 	stx	,s	;, s1.212
   01B3 E6 68         [ 5]  273 	ldb	8,s	;, c.211
   01B5 C1 25         [ 2]  274 	cmpb	#37	;cmpqi:	;,
   01B7 26 D7         [ 3]  275 	bne	L55	;
   01B9                     276 L46:
   01B9 AE 64         [ 6]  277 	ldx	4,s	;, D.3977
   01BB E6 84         [ 4]  278 	ldb	,x	; c.210,
   01BD 27 08         [ 3]  279 	beq	L48	;
   01BF 30 01         [ 5]  280 	leax	1,x	; s2,,
   01C1                     281 L49:
   01C1 E7 A0         [ 6]  282 	stb	,y+	; c.210,
   01C3 E6 80         [ 6]  283 	ldb	,x+	; c.210,
   01C5 26 FA         [ 3]  284 	bne	L49	;
   01C7                     285 L48:
   01C7 EE E4         [ 5]  286 	ldu	,s	;, s1.212
   01C9 E6 C4         [ 4]  287 	ldb	,u	; c,
   01CB 27 08         [ 3]  288 	beq	L50	;
   01CD 30 41         [ 5]  289 	leax	1,u	; s1.208,,
   01CF                     290 L51:
   01CF E7 A0         [ 6]  291 	stb	,y+	; c,
   01D1 E6 80         [ 6]  292 	ldb	,x+	; c,
   01D3 26 FA         [ 3]  293 	bne	L51	;
   01D5                     294 L50:
   01D5 C6 80         [ 2]  295 	ldb	#-128	;,
   01D7 E7 A4         [ 4]  296 	stb	,y	;,* to
   01D9 8E 00 00      [ 3]  297 	ldx	#_stringBuffer40	;,
   01DC 32 69         [ 5]  298 	leas	9,s	;,,
   01DE 35 E0         [ 8]  299 	puls	y,u,pc	;
                            300 	.globl	__ltoa
   01E0                     301 __ltoa:
   01E0 34 60         [ 7]  302 	pshs	y,u	;
   01E2 32 7C         [ 5]  303 	leas	-4,s	;,,
   01E4 10 AE 6A      [ 7]  304 	ldy	10,s	; pointer, pointer
   01E7 E7 62         [ 5]  305 	stb	2,s	; zeroToSpaces, zeroToSpaces
   01E9 8C 9C 3F      [ 4]  306 	cmpx	#-25537	;cmphi:	; n,
   01EC 10 22 01 40   [ 6]  307 	lbhi	L57	;
   01F0 CE 30 30      [ 3]  308 	ldu	#12336	; digit,
   01F3 CC 32 30      [ 3]  309 	ldd	#12848	;,
   01F6 ED E4         [ 5]  310 	std	,s	;, digit.230
   01F8                     311 L58:
   01F8 8C 4E 1F      [ 4]  312 	cmpx	#19999	;cmphi:	; n,
   01FB 10 22 01 2A   [ 6]  313 	lbhi	L59	;
   01FF EF E4         [ 5]  314 	stu	,s	; digit, digit.230
   0201                     315 L60:
   0201 8C 27 0F      [ 4]  316 	cmpx	#9999	;cmphi:	; n,
   0204 23 0B         [ 3]  317 	bls	L61	;
   0206 30 89 D8 F0   [ 8]  318 	leax	-10000,x	; n,, n
   020A EC E4         [ 5]  319 	ldd	,s	;, digit.230
   020C C3 01 00      [ 4]  320 	addd	#256; addhi3,3	;,
   020F ED E4         [ 5]  321 	std	,s	;, digit.230
   0211                     322 L61:
   0211 6D 62         [ 7]  323 	tst	2,s	; zeroToSpaces
   0213 27 0A         [ 3]  324 	beq	L62	;
   0215 EE E4         [ 5]  325 	ldu	,s	;, digit.230
   0217 11 83 30 30   [ 5]  326 	cmpu	#12336	;cmphi:	;,
   021B 10 27 01 3D   [ 6]  327 	lbeq	L84	;
   021F                     328 L62:
   021F 6F 63         [ 7]  329 	clr	3,s	; useSpace
   0221                     330 L63:
   0221 8C 1F 3F      [ 4]  331 	cmpx	#7999	;cmphi:	; n,
   0224 10 23 00 EC   [ 6]  332 	lbls	L64	;
   0228 30 89 E0 C0   [ 8]  333 	leax	-8000,x	; n,, n
   022C EC E4         [ 5]  334 	ldd	,s	;, digit.230
   022E C3 00 08      [ 4]  335 	addd	#8; addhi3,3	;,
   0231 ED E4         [ 5]  336 	std	,s	;, digit.230
   0233                     337 L65:
   0233 8C 07 CF      [ 4]  338 	cmpx	#1999	;cmphi:	; n,
   0236 23 0B         [ 3]  339 	bls	L66	;
   0238 30 89 F8 30   [ 8]  340 	leax	-2000,x	; n,, n
   023C EC E4         [ 5]  341 	ldd	,s	;, digit.230
   023E C3 00 02      [ 4]  342 	addd	#2; addhi3,3	;,
   0241 ED E4         [ 5]  343 	std	,s	;, digit.230
   0243                     344 L66:
   0243 8C 03 E7      [ 4]  345 	cmpx	#999	;cmphi:	; n,
   0246 23 0B         [ 3]  346 	bls	L67	;
   0248 30 89 FC 18   [ 8]  347 	leax	-1000,x	; n,, n
   024C EC E4         [ 5]  348 	ldd	,s	;, digit.230
   024E C3 00 01      [ 4]  349 	addd	#1; addhi3,3	;,
   0251 ED E4         [ 5]  350 	std	,s	;, digit.230
   0253                     351 L67:
   0253 6D 62         [ 7]  352 	tst	2,s	; zeroToSpaces
   0255 27 0A         [ 3]  353 	beq	L68	;
   0257 E6 63         [ 5]  354 	ldb	3,s	;, useSpace
   0259 C1 01         [ 2]  355 	cmpb	#1	;cmpqi:	;,
   025B 10 27 01 09   [ 6]  356 	lbeq	L85	;
   025F                     357 L69:
   025F 6F 63         [ 7]  358 	clr	3,s	; useSpace
   0261                     359 L68:
   0261 EE E4         [ 5]  360 	ldu	,s	;, digit.230
   0263 EF A4         [ 5]  361 	stu	,y	;,* pointer
   0265 8C 03 1F      [ 4]  362 	cmpx	#799	;cmphi:	; n,
   0268 10 23 00 94   [ 6]  363 	lbls	L70	;
   026C 30 89 FC E0   [ 8]  364 	leax	-800,x	; n,, n
   0270 CE 38 30      [ 3]  365 	ldu	#14384	; digit.231,
   0273 CC 3A 30      [ 3]  366 	ldd	#14896	;,
   0276 ED E4         [ 5]  367 	std	,s	;, digit.232
   0278                     368 L71:
   0278 8C 00 C7      [ 4]  369 	cmpx	#199	;cmphi:	; n,
   027B 10 22 00 7A   [ 6]  370 	lbhi	L73	;
   027F EF E4         [ 5]  371 	stu	,s	; digit.231, digit.232
   0281                     372 L74:
   0281 8C 00 63      [ 4]  373 	cmpx	#99	;cmphi:	; n,
   0284 23 0A         [ 3]  374 	bls	L75	;
   0286 30 88 9C      [ 5]  375 	leax	-100,x	; n,, n
   0289 EC E4         [ 5]  376 	ldd	,s	;, digit.232
   028B C3 01 00      [ 4]  377 	addd	#256; addhi3,3	;,
   028E ED E4         [ 5]  378 	std	,s	;, digit.232
   0290                     379 L75:
   0290 6D 62         [ 7]  380 	tst	2,s	; zeroToSpaces
   0292 27 0A         [ 3]  381 	beq	L76	;
   0294 E6 63         [ 5]  382 	ldb	3,s	;, useSpace
   0296 C1 01         [ 2]  383 	cmpb	#1	;cmpqi:	;,
   0298 10 27 00 DE   [ 6]  384 	lbeq	L86	;
   029C                     385 L77:
   029C 6F 63         [ 7]  386 	clr	3,s	; useSpace
   029E                     387 L76:
   029E 8C 00 4F      [ 4]  388 	cmpx	#79	;cmphi:	; n,
   02A1 23 45         [ 3]  389 	bls	L78	;
   02A3 30 88 B0      [ 5]  390 	leax	-80,x	; n,, n
   02A6 EC E4         [ 5]  391 	ldd	,s	;, digit.232
   02A8 C3 00 08      [ 4]  392 	addd	#8; addhi3,3	;,
   02AB ED E4         [ 5]  393 	std	,s	;, digit.232
   02AD                     394 L79:
   02AD 8C 00 13      [ 4]  395 	cmpx	#19	;cmphi:	; n,
   02B0 23 0A         [ 3]  396 	bls	L80	;
   02B2 30 88 EC      [ 5]  397 	leax	-20,x	; n,, n
   02B5 EC E4         [ 5]  398 	ldd	,s	;, digit.232
   02B7 C3 00 02      [ 4]  399 	addd	#2; addhi3,3	;,
   02BA ED E4         [ 5]  400 	std	,s	;, digit.232
   02BC                     401 L80:
   02BC 8C 00 09      [ 4]  402 	cmpx	#9	;cmphi:	; n,
   02BF 23 09         [ 3]  403 	bls	L81	;
   02C1 30 16         [ 5]  404 	leax	-10,x	; n,, n
   02C3 EC E4         [ 5]  405 	ldd	,s	;, digit.232
   02C5 C3 00 01      [ 4]  406 	addd	#1; addhi3,3	;,
   02C8 ED E4         [ 5]  407 	std	,s	;, digit.232
   02CA                     408 L81:
   02CA 6D 62         [ 7]  409 	tst	2,s	; zeroToSpaces
   02CC 27 08         [ 3]  410 	beq	L82	;
   02CE E6 63         [ 5]  411 	ldb	3,s	;, useSpace
   02D0 C1 01         [ 2]  412 	cmpb	#1	;cmpqi:	;,
   02D2 10 27 00 74   [ 6]  413 	lbeq	L87	;
   02D6                     414 L82:
   02D6 EE E4         [ 5]  415 	ldu	,s	;, digit.232
   02D8 EF 22         [ 6]  416 	stu	2,y	;,
   02DA 1F 10         [ 6]  417 	tfr	x,d	;movlsbqihi: R:x -> R:b	; n, n
   02DC CB 30         [ 2]  418 	addb	#48	; n,
   02DE E7 24         [ 5]  419 	stb	4,y	; n,
   02E0 6F 25         [ 7]  420 	clr	5,y	;
   02E2 30 A4         [ 4]  421 	leax	,y	;, pointer
   02E4 32 64         [ 5]  422 	leas	4,s	;,,
   02E6 35 E0         [ 8]  423 	puls	y,u,pc	;
   02E8                     424 L78:
   02E8 8C 00 27      [ 4]  425 	cmpx	#39	;cmphi:	; n,
   02EB 23 C0         [ 3]  426 	bls	L79	;
   02ED 30 88 D8      [ 5]  427 	leax	-40,x	; n,, n
   02F0 EC E4         [ 5]  428 	ldd	,s	;, digit.232
   02F2 C3 00 04      [ 4]  429 	addd	#4; addhi3,3	;,
   02F5 ED E4         [ 5]  430 	std	,s	;, digit.232
   02F7 20 B4         [ 3]  431 	bra	L79	;
   02F9                     432 L73:
   02F9 30 89 FF 38   [ 8]  433 	leax	-200,x	; n,, n
   02FD 16 FF 81      [ 5]  434 	lbra	L74	;
   0300                     435 L70:
   0300 8C 01 8F      [ 4]  436 	cmpx	#399	;cmphi:	; n,
   0303 23 3A         [ 3]  437 	bls	L88	;
   0305 30 89 FE 70   [ 8]  438 	leax	-400,x	; n,, n
   0309 CE 34 30      [ 3]  439 	ldu	#13360	; digit.231,
   030C CC 36 30      [ 3]  440 	ldd	#13872	;,
   030F ED E4         [ 5]  441 	std	,s	;, digit.232
   0311 16 FF 64      [ 5]  442 	lbra	L71	;
   0314                     443 L64:
   0314 8C 0F 9F      [ 4]  444 	cmpx	#3999	;cmphi:	; n,
   0317 10 23 FF 18   [ 6]  445 	lbls	L65	;
   031B 30 89 F0 60   [ 8]  446 	leax	-4000,x	; n,, n
   031F EC E4         [ 5]  447 	ldd	,s	;, digit.230
   0321 C3 00 04      [ 4]  448 	addd	#4; addhi3,3	;,
   0324 ED E4         [ 5]  449 	std	,s	;, digit.230
   0326 16 FF 0A      [ 5]  450 	lbra	L65	;
   0329                     451 L59:
   0329 30 89 B1 E0   [ 8]  452 	leax	-20000,x	; n,, n
   032D 16 FE D1      [ 5]  453 	lbra	L60	;
   0330                     454 L57:
   0330 30 89 63 C0   [ 8]  455 	leax	25536,x	; n,, n
   0334 CE 34 30      [ 3]  456 	ldu	#13360	; digit,
   0337 CC 36 30      [ 3]  457 	ldd	#13872	;,
   033A ED E4         [ 5]  458 	std	,s	;, digit.230
   033C 16 FE B9      [ 5]  459 	lbra	L58	;
   033F                     460 L88:
   033F CE 30 30      [ 3]  461 	ldu	#12336	; digit.231,
   0342 CC 32 30      [ 3]  462 	ldd	#12848	;,
   0345 ED E4         [ 5]  463 	std	,s	;, digit.232
   0347 16 FF 2E      [ 5]  464 	lbra	L71	;
   034A                     465 L87:
   034A EE E4         [ 5]  466 	ldu	,s	;, digit.232
   034C 11 83 20 30   [ 5]  467 	cmpu	#8240	;cmphi:	;,
   0350 10 26 FF 82   [ 6]  468 	lbne	L82	;
   0354 CC 20 20      [ 3]  469 	ldd	#8224	;,
   0357 ED E4         [ 5]  470 	std	,s	;, digit.232
   0359 16 FF 7A      [ 5]  471 	lbra	L82	;
   035C                     472 L84:
   035C CC 20 30      [ 3]  473 	ldd	#8240	;,
   035F ED E4         [ 5]  474 	std	,s	;, digit.230
   0361 C6 01         [ 2]  475 	ldb	#1	;,
   0363 E7 63         [ 5]  476 	stb	3,s	;, useSpace
   0365 16 FE B9      [ 5]  477 	lbra	L63	;
   0368                     478 L85:
   0368 EE E4         [ 5]  479 	ldu	,s	;, digit.230
   036A 11 83 20 30   [ 5]  480 	cmpu	#8240	;cmphi:	;,
   036E 10 26 FE ED   [ 6]  481 	lbne	L69	;
   0372 CC 20 20      [ 3]  482 	ldd	#8224	;,
   0375 ED E4         [ 5]  483 	std	,s	;, digit.230
   0377 16 FE E7      [ 5]  484 	lbra	L68	;
   037A                     485 L86:
   037A EE E4         [ 5]  486 	ldu	,s	;, digit.232
   037C 11 83 30 30   [ 5]  487 	cmpu	#12336	;cmphi:	;,
   0380 10 26 FF 18   [ 6]  488 	lbne	L77	;
   0384 CC 20 30      [ 3]  489 	ldd	#8240	;,
   0387 ED E4         [ 5]  490 	std	,s	;, digit.232
   0389 16 FF 12      [ 5]  491 	lbra	L76	;
                            492 	.globl	_ltoa
   038C                     493 _ltoa:
   038C 34 40         [ 6]  494 	pshs	u	;
   038E CE 00 00      [ 3]  495 	ldu	#_stringBuffer6	;,
   0391 EF E3         [ 8]  496 	stu	,--s	;,
   0393 C6 01         [ 2]  497 	ldb	#1	;,
   0395 BD 01 E0      [ 8]  498 	jsr	__ltoa
   0398 32 62         [ 5]  499 	leas	2,s	;,,
   039A 35 C0         [ 7]  500 	puls	u,pc	;
                            501 	.globl	_Rand
   039C                     502 _Rand:
   039C 32 7E         [ 5]  503 	leas	-2,s	;,,
   039E F6 00 00      [ 5]  504 	ldb	__x	;, _x
   03A1 5C            [ 2]  505 	incb	;
   03A2 E7 E4         [ 4]  506 	stb	,s	;, _x.6
   03A4 F7 00 00      [ 5]  507 	stb	__x	;, _x
   03A7 F6 00 00      [ 5]  508 	ldb	__c	;, _c
   03AA F8 00 00      [ 5]  509 	eorb	__a	;, _a
   03AD E7 61         [ 5]  510 	stb	1,s	;, _a.9
   03AF E6 E4         [ 4]  511 	ldb	,s	;, _x.6
   03B1 E8 61         [ 5]  512 	eorb	1,s	;, _a.9
   03B3 E7 61         [ 5]  513 	stb	1,s	;, _a.9
   03B5 F7 00 00      [ 5]  514 	stb	__a	;, _a
   03B8 FB 00 00      [ 5]  515 	addb	__b	; _b.11, _b
   03BB F7 00 00      [ 5]  516 	stb	__b	; _b.11, _b
   03BE 54            [ 2]  517 	lsrb	; _c.12
   03BF FB 00 00      [ 5]  518 	addb	__c	; _c.12, _c
   03C2 E8 61         [ 5]  519 	eorb	1,s	; _c.12, _a.9
   03C4 F7 00 00      [ 5]  520 	stb	__c	; _c.12, _c
   03C7 32 62         [ 5]  521 	leas	2,s	;,,
   03C9 39            [ 5]  522 	rts
                            523 	.globl	_RandMax
   03CA                     524 _RandMax:
   03CA 32 7D         [ 5]  525 	leas	-3,s	;,,
   03CC E7 61         [ 5]  526 	stb	1,s	; m, m
   03CE 27 3C         [ 3]  527 	beq	L95	;
   03D0 F6 00 00      [ 5]  528 	ldb	__x	;, _x
   03D3 5C            [ 2]  529 	incb	;
   03D4 E7 E4         [ 4]  530 	stb	,s	;, _x.6
   03D6 F7 00 00      [ 5]  531 	stb	__x	;, _x
   03D9 F6 00 00      [ 5]  532 	ldb	__c	;, _c
   03DC F8 00 00      [ 5]  533 	eorb	__a	;, _a
   03DF E7 62         [ 5]  534 	stb	2,s	;, _a.9
   03E1 E6 E4         [ 4]  535 	ldb	,s	;, _x.6
   03E3 E8 62         [ 5]  536 	eorb	2,s	;, _a.9
   03E5 E7 62         [ 5]  537 	stb	2,s	;, _a.9
   03E7 F7 00 00      [ 5]  538 	stb	__a	;, _a
   03EA FB 00 00      [ 5]  539 	addb	__b	; _b.11, _b
   03ED F7 00 00      [ 5]  540 	stb	__b	; _b.11, _b
   03F0 54            [ 2]  541 	lsrb	; _b.11
   03F1 FB 00 00      [ 5]  542 	addb	__c	; _b.11, _c
   03F4 E8 62         [ 5]  543 	eorb	2,s	; _b.11, _a.9
   03F6 E7 E4         [ 4]  544 	stb	,s	; _b.11, _c.12
   03F8 F7 00 00      [ 5]  545 	stb	__c	; _b.11, _c
   03FB E6 61         [ 5]  546 	ldb	1,s	;, m
   03FD 4F            [ 2]  547 	clra		;zero_extendqihi: R:b -> R:d	;,
   03FE 34 06         [ 7]  548 	pshs	d	; m
   0400 E6 62         [ 5]  549 	ldb	2,s	;, _c.12
   0402 4F            [ 2]  550 	clra		;zero_extendqihi: R:b -> R:d	;,
   0403 1F 01         [ 6]  551 	tfr	d,x	;,
   0405 BD 00 00      [ 8]  552 	jsr	_umodhi3
   0408 32 62         [ 5]  553 	leas	2,s	;,,
   040A 1F 10         [ 6]  554 	tfr	x,d	;movlsbqihi: R:x -> R:b	; tmp41, D.3122
   040C                     555 L95:
   040C 32 63         [ 5]  556 	leas	3,s	;,,
   040E 39            [ 5]  557 	rts
                            558 	.globl	__fl_s
   040F                     559 __fl_s:
   040F 34 60         [ 7]  560 	pshs	y,u	;
   0411 32 7B         [ 5]  561 	leas	-5,s	;,,
   0413 AF E4         [ 5]  562 	stx	,s	; s1, s1
   0415 10 8E 00 00   [ 4]  563 	ldy	#_stringBuffer6	; tmp38,
   0419 34 20         [ 6]  564 	pshs	y	; tmp38
   041B C6 01         [ 2]  565 	ldb	#1	;,
   041D AE 6D         [ 6]  566 	ldx	13,s	;, i
   041F BD 01 E0      [ 8]  567 	jsr	__ltoa
   0422 30 A4         [ 4]  568 	leax	,y	;, tmp38
   0424 BD 00 3A      [ 8]  569 	jsr	_removeSpaces
   0427 10 AE 62      [ 7]  570 	ldy	2,s	; s1.304, s1
   042A E6 A0         [ 6]  571 	ldb	,y+	;,
   042C E7 66         [ 5]  572 	stb	6,s	;, c.303
   042E 32 62         [ 5]  573 	leas	2,s	;,,
   0430 CE 00 00      [ 3]  574 	ldu	#_stringBuffer40	; to,
   0433 C1 25         [ 2]  575 	cmpb	#37	;cmpqi:	;,
   0435 27 2E         [ 3]  576 	beq	L99	;
   0437 10 8E 00 00   [ 4]  577 	ldy	#0	; ivtmp.302,
   043B 20 03         [ 3]  578 	bra	L100	;
   043D                     579 L108:
   043D 10 AE 62      [ 7]  580 	ldy	2,s	; ivtmp.302, ivtmp.294
   0440                     581 L100:
   0440 E6 64         [ 5]  582 	ldb	4,s	;, c.303
   0442 E7 A9 00 00   [ 8]  583 	stb	_stringBuffer40,y	;,
   0446 30 21         [ 5]  584 	leax	1,y	;,, ivtmp.302
   0448 AF 62         [ 6]  585 	stx	2,s	;, ivtmp.294
   044A 33 89 00 00   [ 8]  586 	leau	_stringBuffer40,x	; to,,
   044E EC E4         [ 5]  587 	ldd	,s	;, s1
   0450 30 AB         [ 8]  588 	leax	d,y	; tmp40,, ivtmp.302
   0452 E6 01         [ 5]  589 	ldb	1,x	;,
   0454 E7 64         [ 5]  590 	stb	4,s	;, c.303
   0456 1F 20         [ 6]  591 	tfr	y,d	; ivtmp.302, tmp41
   0458 C3 00 02      [ 4]  592 	addd	#2; addhi3,3	; tmp41,
   045B AE E4         [ 5]  593 	ldx	,s	;, s1
   045D 31 8B         [ 8]  594 	leay	d,x	; s1.304, tmp41,
   045F E6 64         [ 5]  595 	ldb	4,s	;, c.303
   0461 C1 25         [ 2]  596 	cmpb	#37	;cmpqi:	;,
   0463 26 D8         [ 3]  597 	bne	L108	;
   0465                     598 L99:
   0465 F6 00 00      [ 5]  599 	ldb	_stringBuffer6	; c.301, stringBuffer6
   0468 27 09         [ 3]  600 	beq	L101	;
   046A 8E 00 01      [ 3]  601 	ldx	#_stringBuffer6+1	; s2,
   046D                     602 L102:
   046D E7 C0         [ 6]  603 	stb	,u+	; c.301,
   046F E6 80         [ 6]  604 	ldb	,x+	; c.301,
   0471 26 FA         [ 3]  605 	bne	L102	;
   0473                     606 L101:
   0473 E6 A4         [ 4]  607 	ldb	,y	; c,* s1.304
   0475 27 08         [ 3]  608 	beq	L103	;
   0477 30 21         [ 5]  609 	leax	1,y	; s1.300,, s1.304
   0479                     610 L104:
   0479 E7 C0         [ 6]  611 	stb	,u+	; c,
   047B E6 80         [ 6]  612 	ldb	,x+	; c,
   047D 26 FA         [ 3]  613 	bne	L104	;
   047F                     614 L103:
   047F C6 80         [ 2]  615 	ldb	#-128	;,
   0481 E7 C4         [ 4]  616 	stb	,u	;,* to
   0483 32 65         [ 5]  617 	leas	5,s	;,,
   0485 35 E0         [ 8]  618 	puls	y,u,pc	;
                            619 	.globl	__lltoa
   0487                     620 __lltoa:
   0487 34 60         [ 7]  621 	pshs	y,u	;
   0489 32 79         [ 5]  622 	leas	-7,s	;,,
   048B 10 AE 6D      [ 7]  623 	ldy	13,s	;, n
   048E 10 AF 62      [ 7]  624 	sty	2,s	;, n
   0491 EE 6F         [ 6]  625 	ldu	15,s	;, n
   0493 EF 64         [ 6]  626 	stu	4,s	;, n
   0495 33 84         [ 4]  627 	leau	,x	; pointer, pointer
   0497 10 8C 77 35   [ 5]  628 	cmpy	#30517	;cmphi:	; tmp6,
   049B 10 22 06 31   [ 6]  629 	lbhi	L110	;
   049F 10 27 06 22   [ 6]  630 	lbeq	L242	;
   04A3                     631 L205:
   04A3 CC 30 30      [ 3]  632 	ldd	#12336	;,
   04A6 ED E4         [ 5]  633 	std	,s	;, digit
   04A8 8E 31 30      [ 3]  634 	ldx	#12592	; digit.329,
   04AB                     635 L112:
   04AB 10 AE 62      [ 7]  636 	ldy	2,s	;, n
   04AE 10 8C 3B 9A   [ 5]  637 	cmpy	#15258	;cmphi:	;,
   04B2 10 22 03 27   [ 6]  638 	lbhi	L206	;
   04B6 10 27 03 18   [ 6]  639 	lbeq	L243	;
   04BA                     640 L113:
   04BA AE E4         [ 5]  641 	ldx	,s	;, digit
   04BC 8C 30 30      [ 4]  642 	cmpx	#12336	;cmphi:	;,
   04BF 10 26 03 2B   [ 6]  643 	lbne	L115	;
   04C3 10 8E 20 30   [ 4]  644 	ldy	#8240	;,
   04C7 10 AF E4      [ 6]  645 	sty	,s	;, digit
   04CA C6 01         [ 2]  646 	ldb	#1	;,
   04CC E7 66         [ 5]  647 	stb	6,s	;, useSpace
   04CE AE 62         [ 6]  648 	ldx	2,s	;, n
   04D0 8C 2F AF      [ 4]  649 	cmpx	#12207	;cmphi:	;,
   04D3 10 23 03 22   [ 6]  650 	lbls	L244	;
   04D7                     651 L207:
   04D7 EC 64         [ 6]  652 	ldd	4,s	;, n
   04D9 C3 F8 00      [ 4]  653 	addd	#-2048	;,
   04DC ED 64         [ 6]  654 	std	4,s	;, n
   04DE EC 62         [ 6]  655 	ldd	2,s	;, n
   04E0 C9 50         [ 2]  656 	adcb	#80	;
   04E2 89 D0         [ 2]  657 	adca	#-48	;
   04E4 ED 62         [ 6]  658 	std	2,s	;, n
   04E6 EC E4         [ 5]  659 	ldd	,s	;, digit
   04E8 C3 00 08      [ 4]  660 	addd	#8; addhi3,3	;,
   04EB ED E4         [ 5]  661 	std	,s	;, digit
   04ED                     662 L119:
   04ED AE 62         [ 6]  663 	ldx	2,s	;, n
   04EF 8C 0B EB      [ 4]  664 	cmpx	#3051	;cmphi:	;,
   04F2 10 22 03 32   [ 6]  665 	lbhi	L209	;
   04F6                     666 L272:
   04F6 8C 0B EB      [ 4]  667 	cmpx	#3051	;cmphi:	; tmp2,
   04F9 10 27 06 7C   [ 6]  668 	lbeq	L245	;
   04FD                     669 L121:
   04FD AE 62         [ 6]  670 	ldx	2,s	;, n
   04FF 8C 05 F5      [ 4]  671 	cmpx	#1525	;cmphi:	;,
   0502 10 22 03 41   [ 6]  672 	lbhi	L210	;
   0506                     673 L273:
   0506 8C 05 F5      [ 4]  674 	cmpx	#1525	;cmphi:	; tmp2,
   0509 10 27 06 93   [ 6]  675 	lbeq	L246	;
   050D                     676 L123:
   050D E6 66         [ 5]  677 	ldb	6,s	;, useSpace
   050F C1 01         [ 2]  678 	cmpb	#1	;cmpqi:	;,
   0511 10 27 03 50   [ 6]  679 	lbeq	L247	;
   0515                     680 L125:
   0515 6F 66         [ 7]  681 	clr	6,s	; useSpace
   0517 EC E4         [ 5]  682 	ldd	,s	;, digit
   0519                     683 L126:
   0519 ED C4         [ 5]  684 	std	,u	;,* pointer
   051B AE 62         [ 6]  685 	ldx	2,s	;, n
   051D 8C 04 C4      [ 4]  686 	cmpx	#1220	;cmphi:	;,
   0520 10 22 03 5D   [ 6]  687 	lbhi	L211	;
   0524 10 27 03 4F   [ 6]  688 	lbeq	L248	;
   0528                     689 L127:
   0528 EC 62         [ 6]  690 	ldd	2,s	;, n
   052A 10 83 02 62   [ 5]  691 	cmpd	#610	;cmphi:	;,
   052E 10 23 05 DF   [ 6]  692 	lbls	L249	;
   0532                     693 L130:
   0532 EC 64         [ 6]  694 	ldd	4,s	;, n
   0534 C3 A6 00      [ 4]  695 	addd	#-23040	;,
   0537 ED 64         [ 6]  696 	std	4,s	;, n
   0539 EC 62         [ 6]  697 	ldd	2,s	;, n
   053B C9 9D         [ 2]  698 	adcb	#-99	;
   053D 89 FD         [ 2]  699 	adca	#-3	;
   053F ED 62         [ 6]  700 	std	2,s	;, n
   0541 8E 34 30      [ 3]  701 	ldx	#13360	; digit.321,
   0544 10 8E 36 30   [ 4]  702 	ldy	#13872	;,
   0548 10 AF E4      [ 6]  703 	sty	,s	;, digit.322
   054B EC 62         [ 6]  704 	ldd	2,s	;, n
   054D 10 83 01 31   [ 5]  705 	cmpd	#305	;cmphi:	;,
   0551 10 23 03 4F   [ 6]  706 	lbls	L250	;
   0555                     707 L132:
   0555 EC 64         [ 6]  708 	ldd	4,s	;, n
   0557 C3 D3 00      [ 4]  709 	addd	#-11520	;,
   055A ED 64         [ 6]  710 	std	4,s	;, n
   055C EC 62         [ 6]  711 	ldd	2,s	;, n
   055E C9 CE         [ 2]  712 	adcb	#-50	;
   0560 89 FE         [ 2]  713 	adca	#-2	;
   0562 ED 62         [ 6]  714 	std	2,s	;, n
   0564 AE 62         [ 6]  715 	ldx	2,s	;, n
   0566 8C 00 98      [ 4]  716 	cmpx	#152	;cmphi:	;,
   0569 10 23 03 4A   [ 6]  717 	lbls	L251	;
   056D                     718 L214:
   056D EC 64         [ 6]  719 	ldd	4,s	;, n
   056F C3 69 80      [ 4]  720 	addd	#27008	;,
   0572 ED 64         [ 6]  721 	std	4,s	;, n
   0574 EC 62         [ 6]  722 	ldd	2,s	;, n
   0576 C9 67         [ 2]  723 	adcb	#103	;
   0578 89 FF         [ 2]  724 	adca	#-1	;
   057A ED 62         [ 6]  725 	std	2,s	;, n
   057C EC E4         [ 5]  726 	ldd	,s	;, digit.322
   057E C3 01 00      [ 4]  727 	addd	#256; addhi3,3	;,
   0581 ED E4         [ 5]  728 	std	,s	;, digit.322
   0583                     729 L135:
   0583 E6 66         [ 5]  730 	ldb	6,s	;, useSpace
   0585 C1 01         [ 2]  731 	cmpb	#1	;cmpqi:	;,
   0587 10 27 05 C0   [ 6]  732 	lbeq	L252	;
   058B                     733 L137:
   058B 6F 66         [ 7]  734 	clr	6,s	; useSpace
   058D                     735 L138:
   058D EC 62         [ 6]  736 	ldd	2,s	;, n
   058F 10 83 00 7A   [ 5]  737 	cmpd	#122	;cmphi:	;,
   0593 10 22 03 3F   [ 6]  738 	lbhi	L215	;
   0597 10 27 03 30   [ 6]  739 	lbeq	L253	;
   059B                     740 L139:
   059B AE 62         [ 6]  741 	ldx	2,s	;, n
   059D 8C 00 3D      [ 4]  742 	cmpx	#61	;cmphi:	;,
   05A0 10 23 05 59   [ 6]  743 	lbls	L254	;
   05A4                     744 L216:
   05A4 EC 64         [ 6]  745 	ldd	4,s	;, n
   05A6 C3 F7 00      [ 4]  746 	addd	#-2304	;,
   05A9 ED 64         [ 6]  747 	std	4,s	;, n
   05AB EC 62         [ 6]  748 	ldd	2,s	;, n
   05AD C9 C2         [ 2]  749 	adcb	#-62	;
   05AF 89 FF         [ 2]  750 	adca	#-1	;
   05B1 ED 62         [ 6]  751 	std	2,s	;, n
   05B3 EC E4         [ 5]  752 	ldd	,s	;, digit.322
   05B5 C3 00 04      [ 4]  753 	addd	#4; addhi3,3	;,
   05B8 ED E4         [ 5]  754 	std	,s	;, digit.322
   05BA AE 62         [ 6]  755 	ldx	2,s	;, n
   05BC 8C 00 1E      [ 4]  756 	cmpx	#30	;cmphi:	;,
   05BF 10 23 03 32   [ 6]  757 	lbls	L255	;
   05C3                     758 L217:
   05C3 EC 64         [ 6]  759 	ldd	4,s	;, n
   05C5 C3 7B 80      [ 4]  760 	addd	#31616	;,
   05C8 ED 64         [ 6]  761 	std	4,s	;, n
   05CA EC 62         [ 6]  762 	ldd	2,s	;, n
   05CC C9 E1         [ 2]  763 	adcb	#-31	;
   05CE 89 FF         [ 2]  764 	adca	#-1	;
   05D0 ED 62         [ 6]  765 	std	2,s	;, n
   05D2 EC E4         [ 5]  766 	ldd	,s	;, digit.322
   05D4 C3 00 02      [ 4]  767 	addd	#2; addhi3,3	;,
   05D7 ED E4         [ 5]  768 	std	,s	;, digit.322
   05D9                     769 L143:
   05D9 AE 62         [ 6]  770 	ldx	2,s	;, n
   05DB 8C 00 0F      [ 4]  771 	cmpx	#15	;cmphi:	;,
   05DE 10 22 04 B3   [ 6]  772 	lbhi	L218	;
   05E2 10 27 04 A5   [ 6]  773 	lbeq	L256	;
   05E6                     774 L145:
   05E6 E6 66         [ 5]  775 	ldb	6,s	;, useSpace
   05E8 C1 01         [ 2]  776 	cmpb	#1	;cmpqi:	;,
   05EA 10 27 04 C5   [ 6]  777 	lbeq	L257	;
   05EE                     778 L147:
   05EE 6F 66         [ 7]  779 	clr	6,s	; useSpace
   05F0 EC E4         [ 5]  780 	ldd	,s	;, digit.322
   05F2                     781 L148:
   05F2 ED 42         [ 6]  782 	std	2,u	;,
   05F4 AE 62         [ 6]  783 	ldx	2,s	;, n
   05F6 8C 00 0C      [ 4]  784 	cmpx	#12	;cmphi:	;,
   05F9 10 22 03 16   [ 6]  785 	lbhi	L219	;
   05FD 10 27 03 08   [ 6]  786 	lbeq	L258	;
   0601                     787 L149:
   0601 EC 62         [ 6]  788 	ldd	2,s	;, n
   0603 10 83 00 06   [ 5]  789 	cmpd	#6	;cmphi:	;,
   0607 10 23 04 DF   [ 6]  790 	lbls	L259	;
   060B                     791 L152:
   060B EC 64         [ 6]  792 	ldd	4,s	;, n
   060D C3 E5 80      [ 4]  793 	addd	#-6784	;,
   0610 ED 64         [ 6]  794 	std	4,s	;, n
   0612 EC 62         [ 6]  795 	ldd	2,s	;, n
   0614 C9 F9         [ 2]  796 	adcb	#-7	;
   0616 89 FF         [ 2]  797 	adca	#-1	;
   0618 ED 62         [ 6]  798 	std	2,s	;, n
   061A 8E 34 30      [ 3]  799 	ldx	#13360	; digit.323,
   061D 10 8E 36 30   [ 4]  800 	ldy	#13872	;,
   0621 10 AF E4      [ 6]  801 	sty	,s	;, digit.324
   0624 EC 62         [ 6]  802 	ldd	2,s	;, n
   0626 10 83 00 03   [ 5]  803 	cmpd	#3	;cmphi:	;,
   062A 10 23 03 08   [ 6]  804 	lbls	L260	;
   062E                     805 L154:
   062E EC 64         [ 6]  806 	ldd	4,s	;, n
   0630 C3 F2 C0      [ 4]  807 	addd	#-3392	;,
   0633 ED 64         [ 6]  808 	std	4,s	;, n
   0635 EC 62         [ 6]  809 	ldd	2,s	;, n
   0637 C9 FC         [ 2]  810 	adcb	#-4	;
   0639 89 FF         [ 2]  811 	adca	#-1	;
   063B ED 62         [ 6]  812 	std	2,s	;, n
   063D AE 62         [ 6]  813 	ldx	2,s	;, n
   063F 8C 00 01      [ 4]  814 	cmpx	#1	;cmphi:	;,
   0642 10 23 03 03   [ 6]  815 	lbls	L261	;
   0646                     816 L222:
   0646 EC 64         [ 6]  817 	ldd	4,s	;, n
   0648 C3 79 60      [ 4]  818 	addd	#31072	;,
   064B ED 64         [ 6]  819 	std	4,s	;, n
   064D EC 62         [ 6]  820 	ldd	2,s	;, n
   064F C9 FE         [ 2]  821 	adcb	#-2	;
   0651 89 FF         [ 2]  822 	adca	#-1	;
   0653 ED 62         [ 6]  823 	std	2,s	;, n
   0655 EC E4         [ 5]  824 	ldd	,s	;, digit.324
   0657 C3 01 00      [ 4]  825 	addd	#256; addhi3,3	;,
   065A ED E4         [ 5]  826 	std	,s	;, digit.324
   065C                     827 L157:
   065C E6 66         [ 5]  828 	ldb	6,s	;, useSpace
   065E C1 01         [ 2]  829 	cmpb	#1	;cmpqi:	;,
   0660 10 27 04 D4   [ 6]  830 	lbeq	L262	;
   0664                     831 L159:
   0664 6F 66         [ 7]  832 	clr	6,s	; useSpace
   0666                     833 L160:
   0666 EC 62         [ 6]  834 	ldd	2,s	;, n
   0668 10 83 00 01   [ 5]  835 	cmpd	#1	;cmphi:	;,
   066C 10 22 02 F8   [ 6]  836 	lbhi	L223	;
   0670 10 27 02 E9   [ 6]  837 	lbeq	L263	;
   0674                     838 L161:
   0674 AE 62         [ 6]  839 	ldx	2,s	;, n
   0676 10 27 04 E4   [ 6]  840 	lbeq	L264	;
   067A                     841 L224:
   067A EC 64         [ 6]  842 	ldd	4,s	;, n
   067C C3 63 C0      [ 4]  843 	addd	#25536	;,
   067F ED 64         [ 6]  844 	std	4,s	;, n
   0681 EC 62         [ 6]  845 	ldd	2,s	;, n
   0683 C9 FF         [ 2]  846 	adcb	#-1	;
   0685 89 FF         [ 2]  847 	adca	#-1	;
   0687 ED 62         [ 6]  848 	std	2,s	;, n
   0689 EC E4         [ 5]  849 	ldd	,s	;, digit.324
   068B C3 00 04      [ 4]  850 	addd	#4; addhi3,3	;,
   068E ED E4         [ 5]  851 	std	,s	;, digit.324
   0690 AE 62         [ 6]  852 	ldx	2,s	;, n
   0692 10 27 02 EE   [ 6]  853 	lbeq	L265	;
   0696                     854 L225:
   0696 EC 64         [ 6]  855 	ldd	4,s	;, n
   0698 C3 B1 E0      [ 4]  856 	addd	#-20000	;,
   069B ED 64         [ 6]  857 	std	4,s	;, n
   069D EC 62         [ 6]  858 	ldd	2,s	;, n
   069F C9 FF         [ 2]  859 	adcb	#-1	;
   06A1 89 FF         [ 2]  860 	adca	#-1	;
   06A3 ED 62         [ 6]  861 	std	2,s	;, n
   06A5 EC E4         [ 5]  862 	ldd	,s	;, digit.324
   06A7 C3 00 02      [ 4]  863 	addd	#2; addhi3,3	;,
   06AA ED E4         [ 5]  864 	std	,s	;, digit.324
   06AC                     865 L165:
   06AC AE 62         [ 6]  866 	ldx	2,s	;, n
   06AE 10 26 03 A9   [ 6]  867 	lbne	L226	;
   06B2 10 AE 64      [ 7]  868 	ldy	4,s	;, n
   06B5 10 8C 27 0F   [ 5]  869 	cmpy	#9999	;cmphi:	;,
   06B9 10 22 03 9E   [ 6]  870 	lbhi	L226	;
   06BD E6 66         [ 5]  871 	ldb	6,s	;, useSpace
   06BF C1 01         [ 2]  872 	cmpb	#1	;cmpqi:	;,
   06C1 10 27 03 B4   [ 6]  873 	lbeq	L266	;
   06C5                     874 L169:
   06C5 6F 66         [ 7]  875 	clr	6,s	; useSpace
   06C7 EC E4         [ 5]  876 	ldd	,s	;, digit.324
   06C9                     877 L170:
   06C9 ED 44         [ 6]  878 	std	4,u	;,
   06CB AE 62         [ 6]  879 	ldx	2,s	;, n
   06CD 26 0B         [ 3]  880 	bne	L227	;
   06CF 10 AE 64      [ 7]  881 	ldy	4,s	;, n
   06D2 10 8C 1F 3F   [ 5]  882 	cmpy	#7999	;cmphi:	;,
   06D6 10 23 04 E2   [ 6]  883 	lbls	L239	;
   06DA                     884 L227:
   06DA EC 64         [ 6]  885 	ldd	4,s	;, n
   06DC C3 E0 C0      [ 4]  886 	addd	#-8000	;,
   06DF ED 64         [ 6]  887 	std	4,s	;, n
   06E1 EC 62         [ 6]  888 	ldd	2,s	;, n
   06E3 C9 FF         [ 2]  889 	adcb	#-1	;
   06E5 89 FF         [ 2]  890 	adca	#-1	;
   06E7 ED 62         [ 6]  891 	std	2,s	;, n
   06E9 8E 38 30      [ 3]  892 	ldx	#14384	; digit.325,
   06EC 10 8E 3A 30   [ 4]  893 	ldy	#14896	;,
   06F0 10 AF E4      [ 6]  894 	sty	,s	;, digit.326
   06F3                     895 L173:
   06F3 EC 62         [ 6]  896 	ldd	2,s	;, n
   06F5 10 26 03 50   [ 6]  897 	lbne	L176	;
   06F9 10 AE 64      [ 7]  898 	ldy	4,s	;, n
   06FC 10 8C 07 CF   [ 5]  899 	cmpy	#1999	;cmphi:	;,
   0700 10 22 03 45   [ 6]  900 	lbhi	L176	;
   0704 AF E4         [ 5]  901 	stx	,s	; digit.325, digit.326
   0706                     902 L178:
   0706 AE 62         [ 6]  903 	ldx	2,s	;, n
   0708 10 26 03 0C   [ 6]  904 	lbne	L230	;
   070C 10 AE 64      [ 7]  905 	ldy	4,s	;, n
   070F 10 8C 03 E7   [ 5]  906 	cmpy	#999	;cmphi:	;,
   0713 10 22 03 01   [ 6]  907 	lbhi	L230	;
   0717 E6 66         [ 5]  908 	ldb	6,s	;, useSpace
   0719 C1 01         [ 2]  909 	cmpb	#1	;cmpqi:	;,
   071B 10 27 03 17   [ 6]  910 	lbeq	L267	;
   071F                     911 L181:
   071F 6F 66         [ 7]  912 	clr	6,s	; useSpace
   0721                     913 L182:
   0721 EC 62         [ 6]  914 	ldd	2,s	;, n
   0723 26 09         [ 3]  915 	bne	L231	;
   0725 AE 64         [ 6]  916 	ldx	4,s	;, n
   0727 8C 03 1F      [ 4]  917 	cmpx	#799	;cmphi:	;,
   072A 10 23 04 A1   [ 6]  918 	lbls	L240	;
   072E                     919 L231:
   072E EC 64         [ 6]  920 	ldd	4,s	;, n
   0730 C3 FC E0      [ 4]  921 	addd	#-800	;,
   0733 ED 64         [ 6]  922 	std	4,s	;, n
   0735 EC 62         [ 6]  923 	ldd	2,s	;, n
   0737 C9 FF         [ 2]  924 	adcb	#-1	;
   0739 89 FF         [ 2]  925 	adca	#-1	;
   073B ED 62         [ 6]  926 	std	2,s	;, n
   073D EC E4         [ 5]  927 	ldd	,s	;, digit.326
   073F C3 00 08      [ 4]  928 	addd	#8; addhi3,3	;,
   0742 ED E4         [ 5]  929 	std	,s	;, digit.326
   0744                     930 L185:
   0744 AE 62         [ 6]  931 	ldx	2,s	;, n
   0746 10 26 02 B5   [ 6]  932 	lbne	L233	;
   074A 10 AE 64      [ 7]  933 	ldy	4,s	;, n
   074D 10 8C 00 C7   [ 5]  934 	cmpy	#199	;cmphi:	;,
   0751 10 22 02 AA   [ 6]  935 	lbhi	L233	;
   0755                     936 L187:
   0755 AE 62         [ 6]  937 	ldx	2,s	;, n
   0757 10 26 02 71   [ 6]  938 	lbne	L234	;
   075B 10 AE 64      [ 7]  939 	ldy	4,s	;, n
   075E 10 8C 00 63   [ 5]  940 	cmpy	#99	;cmphi:	;,
   0762 10 22 02 66   [ 6]  941 	lbhi	L234	;
   0766 E6 66         [ 5]  942 	ldb	6,s	;, useSpace
   0768 C1 01         [ 2]  943 	cmpb	#1	;cmpqi:	;,
   076A 10 27 02 7C   [ 6]  944 	lbeq	L268	;
   076E                     945 L191:
   076E 6F 66         [ 7]  946 	clr	6,s	; useSpace
   0770 EC E4         [ 5]  947 	ldd	,s	;, digit.326
   0772                     948 L192:
   0772 ED 46         [ 6]  949 	std	6,u	;,
   0774 AE 62         [ 6]  950 	ldx	2,s	;, n
   0776 26 0B         [ 3]  951 	bne	L235	;
   0778 10 AE 64      [ 7]  952 	ldy	4,s	;, n
   077B 10 8C 00 4F   [ 5]  953 	cmpy	#79	;cmphi:	;,
   077F 10 23 04 2A   [ 6]  954 	lbls	L241	;
   0783                     955 L235:
   0783 EC 64         [ 6]  956 	ldd	4,s	;, n
   0785 C3 FF B0      [ 4]  957 	addd	#-80	;,
   0788 ED 64         [ 6]  958 	std	4,s	;, n
   078A EC 62         [ 6]  959 	ldd	2,s	;, n
   078C C9 FF         [ 2]  960 	adcb	#-1	;
   078E 89 FF         [ 2]  961 	adca	#-1	;
   0790 ED 62         [ 6]  962 	std	2,s	;, n
   0792 CC 38 30      [ 3]  963 	ldd	#14384	; digit.327,
   0795 8E 3A 30      [ 3]  964 	ldx	#14896	; digit.328,
   0798                     965 L195:
   0798 10 AE 62      [ 7]  966 	ldy	2,s	;, n
   079B 10 26 02 1B   [ 6]  967 	lbne	L198	;
   079F 10 AE 64      [ 7]  968 	ldy	4,s	;, n
   07A2 10 8C 00 13   [ 5]  969 	cmpy	#19	;cmphi:	;,
   07A6 10 22 02 10   [ 6]  970 	lbhi	L198	;
   07AA 1F 01         [ 6]  971 	tfr	d,x	; digit.327, digit.328
   07AC                     972 L200:
   07AC 10 AE 62      [ 7]  973 	ldy	2,s	;, n
   07AF 10 26 01 DF   [ 6]  974 	lbne	L238	;
   07B3 EC 64         [ 6]  975 	ldd	4,s	;, n
   07B5 10 83 00 09   [ 5]  976 	cmpd	#9	;cmphi:	;,
   07B9 10 22 01 D5   [ 6]  977 	lbhi	L238	;
   07BD E6 66         [ 5]  978 	ldb	6,s	;, useSpace
   07BF C1 01         [ 2]  979 	cmpb	#1	;cmpqi:	;,
   07C1 10 27 01 E8   [ 6]  980 	lbeq	L269	;
   07C5                     981 L203:
   07C5 E6 65         [ 5]  982 	ldb	5,s	;, n
   07C7 3A            [ 3]  983 	abx
   07C8 AF 48         [ 6]  984 	stx	8,u	; digit.328,
   07CA 6F 4A         [ 7]  985 	clr	10,u	;
   07CC 30 C4         [ 4]  986 	leax	,u	;, pointer
   07CE 32 67         [ 5]  987 	leas	7,s	;,,
   07D0 35 E0         [ 8]  988 	puls	y,u,pc	;
   07D2                     989 L243:
   07D2 10 AE 64      [ 7]  990 	ldy	4,s	;, n
   07D5 10 8C C9 FF   [ 5]  991 	cmpy	#-13825	;cmphi:	;,
   07D9 10 23 FC DD   [ 6]  992 	lbls	L113	;
   07DD                     993 L206:
   07DD EC 64         [ 6]  994 	ldd	4,s	;, n
   07DF C3 36 00      [ 4]  995 	addd	#13824	;,
   07E2 ED 64         [ 6]  996 	std	4,s	;, n
   07E4 EC 62         [ 6]  997 	ldd	2,s	;, n
   07E6 C9 65         [ 2]  998 	adcb	#101	;
   07E8 89 C4         [ 2]  999 	adca	#-60	;
   07EA ED 62         [ 6] 1000 	std	2,s	;, n
   07EC AF E4         [ 5] 1001 	stx	,s	; digit.329, digit
   07EE                    1002 L115:
   07EE 6F 66         [ 7] 1003 	clr	6,s	; useSpace
   07F0 AE 62         [ 6] 1004 	ldx	2,s	;, n
   07F2 8C 2F AF      [ 4] 1005 	cmpx	#12207	;cmphi:	;,
   07F5 10 22 FC DE   [ 6] 1006 	lbhi	L207	;
   07F9                    1007 L244:
   07F9 8C 2F AF      [ 4] 1008 	cmpx	#12207	;cmphi:	; tmp2,
   07FC 10 27 03 93   [ 6] 1009 	lbeq	L270	;
   0800                    1010 L117:
   0800 AE 62         [ 6] 1011 	ldx	2,s	;, n
   0802 8C 17 D7      [ 4] 1012 	cmpx	#6103	;cmphi:	;,
   0805 10 23 03 1B   [ 6] 1013 	lbls	L271	;
   0809                    1014 L208:
   0809 EC 64         [ 6] 1015 	ldd	4,s	;, n
   080B C3 7C 00      [ 4] 1016 	addd	#31744	;,
   080E ED 64         [ 6] 1017 	std	4,s	;, n
   0810 EC 62         [ 6] 1018 	ldd	2,s	;, n
   0812 C9 28         [ 2] 1019 	adcb	#40	;
   0814 89 E8         [ 2] 1020 	adca	#-24	;
   0816 ED 62         [ 6] 1021 	std	2,s	;, n
   0818 EC E4         [ 5] 1022 	ldd	,s	;, digit
   081A C3 00 04      [ 4] 1023 	addd	#4; addhi3,3	;,
   081D ED E4         [ 5] 1024 	std	,s	;, digit
   081F AE 62         [ 6] 1025 	ldx	2,s	;, n
   0821 8C 0B EB      [ 4] 1026 	cmpx	#3051	;cmphi:	;,
   0824 10 23 FC CE   [ 6] 1027 	lbls	L272	;
   0828                    1028 L209:
   0828 EC 64         [ 6] 1029 	ldd	4,s	;, n
   082A C3 3E 00      [ 4] 1030 	addd	#15872	;,
   082D ED 64         [ 6] 1031 	std	4,s	;, n
   082F EC 62         [ 6] 1032 	ldd	2,s	;, n
   0831 C9 14         [ 2] 1033 	adcb	#20	;
   0833 89 F4         [ 2] 1034 	adca	#-12	;
   0835 ED 62         [ 6] 1035 	std	2,s	;, n
   0837 EC E4         [ 5] 1036 	ldd	,s	;, digit
   0839 C3 00 02      [ 4] 1037 	addd	#2; addhi3,3	;,
   083C ED E4         [ 5] 1038 	std	,s	;, digit
   083E AE 62         [ 6] 1039 	ldx	2,s	;, n
   0840 8C 05 F5      [ 4] 1040 	cmpx	#1525	;cmphi:	;,
   0843 10 23 FC BF   [ 6] 1041 	lbls	L273	;
   0847                    1042 L210:
   0847 EC 64         [ 6] 1043 	ldd	4,s	;, n
   0849 C3 1F 00      [ 4] 1044 	addd	#7936	;,
   084C ED 64         [ 6] 1045 	std	4,s	;, n
   084E EC 62         [ 6] 1046 	ldd	2,s	;, n
   0850 C9 0A         [ 2] 1047 	adcb	#10	;
   0852 89 FA         [ 2] 1048 	adca	#-6	;
   0854 ED 62         [ 6] 1049 	std	2,s	;, n
   0856 EC E4         [ 5] 1050 	ldd	,s	;, digit
   0858 C3 00 01      [ 4] 1051 	addd	#1; addhi3,3	;,
   085B ED E4         [ 5] 1052 	std	,s	;, digit
   085D E6 66         [ 5] 1053 	ldb	6,s	;, useSpace
   085F C1 01         [ 2] 1054 	cmpb	#1	;cmpqi:	;,
   0861 10 26 FC B0   [ 6] 1055 	lbne	L125	;
   0865                    1056 L247:
   0865 AE E4         [ 5] 1057 	ldx	,s	;, digit
   0867 8C 20 30      [ 4] 1058 	cmpx	#8240	;cmphi:	;,
   086A 10 26 FC A7   [ 6] 1059 	lbne	L125	;
   086E 10 8E 20 20   [ 4] 1060 	ldy	#8224	;,
   0872 1F 20         [ 6] 1061 	tfr	y,d	;,
   0874 16 FC A2      [ 5] 1062 	lbra	L126	;
   0877                    1063 L248:
   0877 EC 64         [ 6] 1064 	ldd	4,s	;, n
   0879 10 83 B3 FF   [ 5] 1065 	cmpd	#-19457	;cmphi:	;,
   087D 10 23 FC A7   [ 6] 1066 	lbls	L127	;
   0881                    1067 L211:
   0881 EC 64         [ 6] 1068 	ldd	4,s	;, n
   0883 C3 4C 00      [ 4] 1069 	addd	#19456	;,
   0886 ED 64         [ 6] 1070 	std	4,s	;, n
   0888 EC 62         [ 6] 1071 	ldd	2,s	;, n
   088A C9 3B         [ 2] 1072 	adcb	#59	;
   088C 89 FB         [ 2] 1073 	adca	#-5	;
   088E ED 62         [ 6] 1074 	std	2,s	;, n
   0890 8E 38 30      [ 3] 1075 	ldx	#14384	; digit.321,
   0893 10 8E 3A 30   [ 4] 1076 	ldy	#14896	;,
   0897 10 AF E4      [ 6] 1077 	sty	,s	;, digit.322
   089A                    1078 L129:
   089A EC 62         [ 6] 1079 	ldd	2,s	;, n
   089C 10 83 01 31   [ 5] 1080 	cmpd	#305	;cmphi:	;,
   08A0 10 22 FC B1   [ 6] 1081 	lbhi	L132	;
   08A4                    1082 L250:
   08A4 10 83 01 31   [ 5] 1083 	cmpd	#305	;cmphi:	; tmp2,
   08A8 10 27 02 DA   [ 6] 1084 	lbeq	L274	;
   08AC                    1085 L213:
   08AC AF E4         [ 5] 1086 	stx	,s	; digit.321, digit.322
   08AE AE 62         [ 6] 1087 	ldx	2,s	;, n
   08B0 8C 00 98      [ 4] 1088 	cmpx	#152	;cmphi:	;,
   08B3 10 22 FC B6   [ 6] 1089 	lbhi	L214	;
   08B7                    1090 L251:
   08B7 8C 00 98      [ 4] 1091 	cmpx	#152	;cmphi:	; tmp2,
   08BA 10 26 FC C5   [ 6] 1092 	lbne	L135	;
   08BE EC 64         [ 6] 1093 	ldd	4,s	;, n
   08C0 10 83 96 7F   [ 5] 1094 	cmpd	#-27009	;cmphi:	;,
   08C4 10 23 FC BB   [ 6] 1095 	lbls	L135	;
   08C8 16 FC A2      [ 5] 1096 	lbra	L214	;
   08CB                    1097 L253:
   08CB 10 AE 64      [ 7] 1098 	ldy	4,s	;, n
   08CE 10 8C 11 FF   [ 5] 1099 	cmpy	#4607	;cmphi:	;,
   08D2 10 23 FC C5   [ 6] 1100 	lbls	L139	;
   08D6                    1101 L215:
   08D6 EC 64         [ 6] 1102 	ldd	4,s	;, n
   08D8 C3 EE 00      [ 4] 1103 	addd	#-4608	;,
   08DB ED 64         [ 6] 1104 	std	4,s	;, n
   08DD EC 62         [ 6] 1105 	ldd	2,s	;, n
   08DF C9 85         [ 2] 1106 	adcb	#-123	;
   08E1 89 FF         [ 2] 1107 	adca	#-1	;
   08E3 ED 62         [ 6] 1108 	std	2,s	;, n
   08E5 EC E4         [ 5] 1109 	ldd	,s	;, digit.322
   08E7 C3 00 08      [ 4] 1110 	addd	#8; addhi3,3	;,
   08EA ED E4         [ 5] 1111 	std	,s	;, digit.322
   08EC                    1112 L141:
   08EC AE 62         [ 6] 1113 	ldx	2,s	;, n
   08EE 8C 00 1E      [ 4] 1114 	cmpx	#30	;cmphi:	;,
   08F1 10 22 FC CE   [ 6] 1115 	lbhi	L217	;
   08F5                    1116 L255:
   08F5 8C 00 1E      [ 4] 1117 	cmpx	#30	;cmphi:	; tmp2,
   08F8 10 26 FC DD   [ 6] 1118 	lbne	L143	;
   08FC EC 64         [ 6] 1119 	ldd	4,s	;, n
   08FE 10 83 84 7F   [ 5] 1120 	cmpd	#-31617	;cmphi:	;,
   0902 10 23 FC D3   [ 6] 1121 	lbls	L143	;
   0906 16 FC BA      [ 5] 1122 	lbra	L217	;
   0909                    1123 L258:
   0909 EC 64         [ 6] 1124 	ldd	4,s	;, n
   090B 10 83 34 FF   [ 5] 1125 	cmpd	#13567	;cmphi:	;,
   090F 10 23 FC EE   [ 6] 1126 	lbls	L149	;
   0913                    1127 L219:
   0913 EC 64         [ 6] 1128 	ldd	4,s	;, n
   0915 C3 CB 00      [ 4] 1129 	addd	#-13568	;,
   0918 ED 64         [ 6] 1130 	std	4,s	;, n
   091A EC 62         [ 6] 1131 	ldd	2,s	;, n
   091C C9 F3         [ 2] 1132 	adcb	#-13	;
   091E 89 FF         [ 2] 1133 	adca	#-1	;
   0920 ED 62         [ 6] 1134 	std	2,s	;, n
   0922 8E 38 30      [ 3] 1135 	ldx	#14384	; digit.323,
   0925 10 8E 3A 30   [ 4] 1136 	ldy	#14896	;,
   0929 10 AF E4      [ 6] 1137 	sty	,s	;, digit.324
   092C                    1138 L151:
   092C EC 62         [ 6] 1139 	ldd	2,s	;, n
   092E 10 83 00 03   [ 5] 1140 	cmpd	#3	;cmphi:	;,
   0932 10 22 FC F8   [ 6] 1141 	lbhi	L154	;
   0936                    1142 L260:
   0936 10 83 00 03   [ 5] 1143 	cmpd	#3	;cmphi:	; tmp2,
   093A 10 27 02 2E   [ 6] 1144 	lbeq	L275	;
   093E                    1145 L221:
   093E AF E4         [ 5] 1146 	stx	,s	; digit.323, digit.324
   0940 AE 62         [ 6] 1147 	ldx	2,s	;, n
   0942 8C 00 01      [ 4] 1148 	cmpx	#1	;cmphi:	;,
   0945 10 22 FC FD   [ 6] 1149 	lbhi	L222	;
   0949                    1150 L261:
   0949 8C 00 01      [ 4] 1151 	cmpx	#1	;cmphi:	; tmp2,
   094C 10 26 FD 0C   [ 6] 1152 	lbne	L157	;
   0950 EC 64         [ 6] 1153 	ldd	4,s	;, n
   0952 10 83 86 9F   [ 5] 1154 	cmpd	#-31073	;cmphi:	;,
   0956 10 23 FD 02   [ 6] 1155 	lbls	L157	;
   095A 16 FC E9      [ 5] 1156 	lbra	L222	;
   095D                    1157 L263:
   095D 10 AE 64      [ 7] 1158 	ldy	4,s	;, n
   0960 10 8C 38 7F   [ 5] 1159 	cmpy	#14463	;cmphi:	;,
   0964 10 23 FD 0C   [ 6] 1160 	lbls	L161	;
   0968                    1161 L223:
   0968 EC 64         [ 6] 1162 	ldd	4,s	;, n
   096A C3 C7 80      [ 4] 1163 	addd	#-14464	;,
   096D ED 64         [ 6] 1164 	std	4,s	;, n
   096F EC 62         [ 6] 1165 	ldd	2,s	;, n
   0971 C9 FE         [ 2] 1166 	adcb	#-2	;
   0973 89 FF         [ 2] 1167 	adca	#-1	;
   0975 ED 62         [ 6] 1168 	std	2,s	;, n
   0977 EC E4         [ 5] 1169 	ldd	,s	;, digit.324
   0979 C3 00 08      [ 4] 1170 	addd	#8; addhi3,3	;,
   097C ED E4         [ 5] 1171 	std	,s	;, digit.324
   097E                    1172 L163:
   097E AE 62         [ 6] 1173 	ldx	2,s	;, n
   0980 10 26 FD 12   [ 6] 1174 	lbne	L225	;
   0984                    1175 L265:
   0984 10 AE 64      [ 7] 1176 	ldy	4,s	;, n
   0987 10 8C 4E 1F   [ 5] 1177 	cmpy	#19999	;cmphi:	;,
   098B 10 23 FD 1D   [ 6] 1178 	lbls	L165	;
   098F 16 FD 04      [ 5] 1179 	lbra	L225	;
   0992                    1180 L238:
   0992 EC 64         [ 6] 1181 	ldd	4,s	;, n
   0994 C3 FF F6      [ 4] 1182 	addd	#-10	;,
   0997 ED 64         [ 6] 1183 	std	4,s	;, n
   0999 EC 62         [ 6] 1184 	ldd	2,s	;, n
   099B C9 FF         [ 2] 1185 	adcb	#-1	;
   099D 89 FF         [ 2] 1186 	adca	#-1	;
   099F ED 62         [ 6] 1187 	std	2,s	;, n
   09A1 30 89 01 00   [ 8] 1188 	leax	256,x	; digit.328,, digit.328
   09A5 E6 66         [ 5] 1189 	ldb	6,s	;, useSpace
   09A7 C1 01         [ 2] 1190 	cmpb	#1	;cmpqi:	;,
   09A9 10 26 FE 18   [ 6] 1191 	lbne	L203	;
   09AD                    1192 L269:
   09AD 8C 30 30      [ 4] 1193 	cmpx	#12336	;cmphi:	; digit.328,
   09B0 10 26 FE 11   [ 6] 1194 	lbne	L203	;
   09B4 8E 20 30      [ 3] 1195 	ldx	#8240	; digit.328,
   09B7 16 FE 0B      [ 5] 1196 	lbra	L203	;
   09BA                    1197 L198:
   09BA EC 64         [ 6] 1198 	ldd	4,s	;, n
   09BC C3 FF EC      [ 4] 1199 	addd	#-20	;,
   09BF ED 64         [ 6] 1200 	std	4,s	;, n
   09C1 EC 62         [ 6] 1201 	ldd	2,s	;, n
   09C3 C9 FF         [ 2] 1202 	adcb	#-1	;
   09C5 89 FF         [ 2] 1203 	adca	#-1	;
   09C7 ED 62         [ 6] 1204 	std	2,s	;, n
   09C9 16 FD E0      [ 5] 1205 	lbra	L200	;
   09CC                    1206 L234:
   09CC EC 64         [ 6] 1207 	ldd	4,s	;, n
   09CE C3 FF 9C      [ 4] 1208 	addd	#-100	;,
   09D1 ED 64         [ 6] 1209 	std	4,s	;, n
   09D3 EC 62         [ 6] 1210 	ldd	2,s	;, n
   09D5 C9 FF         [ 2] 1211 	adcb	#-1	;
   09D7 89 FF         [ 2] 1212 	adca	#-1	;
   09D9 ED 62         [ 6] 1213 	std	2,s	;, n
   09DB EC E4         [ 5] 1214 	ldd	,s	;, digit.326
   09DD C3 00 01      [ 4] 1215 	addd	#1; addhi3,3	;,
   09E0 ED E4         [ 5] 1216 	std	,s	;, digit.326
   09E2 E6 66         [ 5] 1217 	ldb	6,s	;, useSpace
   09E4 C1 01         [ 2] 1218 	cmpb	#1	;cmpqi:	;,
   09E6 10 26 FD 84   [ 6] 1219 	lbne	L191	;
   09EA                    1220 L268:
   09EA AE E4         [ 5] 1221 	ldx	,s	;, digit.326
   09EC 8C 20 30      [ 4] 1222 	cmpx	#8240	;cmphi:	;,
   09EF 10 26 FD 7B   [ 6] 1223 	lbne	L191	;
   09F3 10 8E 20 20   [ 4] 1224 	ldy	#8224	;,
   09F7 10 AF E4      [ 6] 1225 	sty	,s	;, digit.326
   09FA 1F 20         [ 6] 1226 	tfr	y,d	;,
   09FC 16 FD 73      [ 5] 1227 	lbra	L192	;
   09FF                    1228 L233:
   09FF EC 64         [ 6] 1229 	ldd	4,s	;, n
   0A01 C3 FF 38      [ 4] 1230 	addd	#-200	;,
   0A04 ED 64         [ 6] 1231 	std	4,s	;, n
   0A06 EC 62         [ 6] 1232 	ldd	2,s	;, n
   0A08 C9 FF         [ 2] 1233 	adcb	#-1	;
   0A0A 89 FF         [ 2] 1234 	adca	#-1	;
   0A0C ED 62         [ 6] 1235 	std	2,s	;, n
   0A0E EC E4         [ 5] 1236 	ldd	,s	;, digit.326
   0A10 C3 00 02      [ 4] 1237 	addd	#2; addhi3,3	;,
   0A13 ED E4         [ 5] 1238 	std	,s	;, digit.326
   0A15 16 FD 3D      [ 5] 1239 	lbra	L187	;
   0A18                    1240 L230:
   0A18 EC 64         [ 6] 1241 	ldd	4,s	;, n
   0A1A C3 FC 18      [ 4] 1242 	addd	#-1000	;,
   0A1D ED 64         [ 6] 1243 	std	4,s	;, n
   0A1F EC 62         [ 6] 1244 	ldd	2,s	;, n
   0A21 C9 FF         [ 2] 1245 	adcb	#-1	;
   0A23 89 FF         [ 2] 1246 	adca	#-1	;
   0A25 ED 62         [ 6] 1247 	std	2,s	;, n
   0A27 EC E4         [ 5] 1248 	ldd	,s	;, digit.326
   0A29 C3 01 00      [ 4] 1249 	addd	#256; addhi3,3	;,
   0A2C ED E4         [ 5] 1250 	std	,s	;, digit.326
   0A2E E6 66         [ 5] 1251 	ldb	6,s	;, useSpace
   0A30 C1 01         [ 2] 1252 	cmpb	#1	;cmpqi:	;,
   0A32 10 26 FC E9   [ 6] 1253 	lbne	L181	;
   0A36                    1254 L267:
   0A36 AE E4         [ 5] 1255 	ldx	,s	;, digit.326
   0A38 8C 30 30      [ 4] 1256 	cmpx	#12336	;cmphi:	;,
   0A3B 10 26 FC E0   [ 6] 1257 	lbne	L181	;
   0A3F 10 8E 20 30   [ 4] 1258 	ldy	#8240	;,
   0A43 10 AF E4      [ 6] 1259 	sty	,s	;, digit.326
   0A46 16 FC D8      [ 5] 1260 	lbra	L182	;
   0A49                    1261 L176:
   0A49 EC 64         [ 6] 1262 	ldd	4,s	;, n
   0A4B C3 F8 30      [ 4] 1263 	addd	#-2000	;,
   0A4E ED 64         [ 6] 1264 	std	4,s	;, n
   0A50 EC 62         [ 6] 1265 	ldd	2,s	;, n
   0A52 C9 FF         [ 2] 1266 	adcb	#-1	;
   0A54 89 FF         [ 2] 1267 	adca	#-1	;
   0A56 ED 62         [ 6] 1268 	std	2,s	;, n
   0A58 16 FC AB      [ 5] 1269 	lbra	L178	;
   0A5B                    1270 L226:
   0A5B EC 64         [ 6] 1271 	ldd	4,s	;, n
   0A5D C3 D8 F0      [ 4] 1272 	addd	#-10000	;,
   0A60 ED 64         [ 6] 1273 	std	4,s	;, n
   0A62 EC 62         [ 6] 1274 	ldd	2,s	;, n
   0A64 C9 FF         [ 2] 1275 	adcb	#-1	;
   0A66 89 FF         [ 2] 1276 	adca	#-1	;
   0A68 ED 62         [ 6] 1277 	std	2,s	;, n
   0A6A EC E4         [ 5] 1278 	ldd	,s	;, digit.324
   0A6C C3 00 01      [ 4] 1279 	addd	#1; addhi3,3	;,
   0A6F ED E4         [ 5] 1280 	std	,s	;, digit.324
   0A71 E6 66         [ 5] 1281 	ldb	6,s	;, useSpace
   0A73 C1 01         [ 2] 1282 	cmpb	#1	;cmpqi:	;,
   0A75 10 26 FC 4C   [ 6] 1283 	lbne	L169	;
   0A79                    1284 L266:
   0A79 AE E4         [ 5] 1285 	ldx	,s	;, digit.324
   0A7B 8C 20 30      [ 4] 1286 	cmpx	#8240	;cmphi:	;,
   0A7E 10 26 FC 43   [ 6] 1287 	lbne	L169	;
   0A82 10 8E 20 20   [ 4] 1288 	ldy	#8224	;,
   0A86 1F 20         [ 6] 1289 	tfr	y,d	;,
   0A88 16 FC 3E      [ 5] 1290 	lbra	L170	;
   0A8B                    1291 L256:
   0A8B EC 64         [ 6] 1292 	ldd	4,s	;, n
   0A8D 10 83 42 3F   [ 5] 1293 	cmpd	#16959	;cmphi:	;,
   0A91 10 23 FB 51   [ 6] 1294 	lbls	L145	;
   0A95                    1295 L218:
   0A95 EC 64         [ 6] 1296 	ldd	4,s	;, n
   0A97 C3 BD C0      [ 4] 1297 	addd	#-16960	;,
   0A9A ED 64         [ 6] 1298 	std	4,s	;, n
   0A9C EC 62         [ 6] 1299 	ldd	2,s	;, n
   0A9E C9 F0         [ 2] 1300 	adcb	#-16	;
   0AA0 89 FF         [ 2] 1301 	adca	#-1	;
   0AA2 ED 62         [ 6] 1302 	std	2,s	;, n
   0AA4 EC E4         [ 5] 1303 	ldd	,s	;, digit.322
   0AA6 C3 00 01      [ 4] 1304 	addd	#1; addhi3,3	;,
   0AA9 ED E4         [ 5] 1305 	std	,s	;, digit.322
   0AAB E6 66         [ 5] 1306 	ldb	6,s	;, useSpace
   0AAD C1 01         [ 2] 1307 	cmpb	#1	;cmpqi:	;,
   0AAF 10 26 FB 3B   [ 6] 1308 	lbne	L147	;
   0AB3                    1309 L257:
   0AB3 AE E4         [ 5] 1310 	ldx	,s	;, digit.322
   0AB5 8C 20 30      [ 4] 1311 	cmpx	#8240	;cmphi:	;,
   0AB8 10 26 FB 32   [ 6] 1312 	lbne	L147	;
   0ABC 10 8E 20 20   [ 4] 1313 	ldy	#8224	;,
   0AC0 1F 20         [ 6] 1314 	tfr	y,d	;,
   0AC2 16 FB 2D      [ 5] 1315 	lbra	L148	;
   0AC5                    1316 L242:
   0AC5 10 AE 64      [ 7] 1317 	ldy	4,s	;, n
   0AC8 10 8C 93 FF   [ 5] 1318 	cmpy	#-27649	;cmphi:	;,
   0ACC 10 23 F9 D3   [ 6] 1319 	lbls	L205	;
   0AD0                    1320 L110:
   0AD0 EC 64         [ 6] 1321 	ldd	4,s	;, n
   0AD2 C3 6C 00      [ 4] 1322 	addd	#27648	;,
   0AD5 ED 64         [ 6] 1323 	std	4,s	;, n
   0AD7 EC 62         [ 6] 1324 	ldd	2,s	;, n
   0AD9 C9 CA         [ 2] 1325 	adcb	#-54	;
   0ADB 89 88         [ 2] 1326 	adca	#-120	;
   0ADD ED 62         [ 6] 1327 	std	2,s	;, n
   0ADF 8E 32 30      [ 3] 1328 	ldx	#12848	;,
   0AE2 AF E4         [ 5] 1329 	stx	,s	;, digit
   0AE4 8E 33 30      [ 3] 1330 	ldx	#13104	; digit.329,
   0AE7 16 F9 C1      [ 5] 1331 	lbra	L112	;
   0AEA                    1332 L259:
   0AEA 10 83 00 06   [ 5] 1333 	cmpd	#6	;cmphi:	; tmp1,
   0AEE 10 27 01 0B   [ 6] 1334 	lbeq	L276	;
   0AF2                    1335 L220:
   0AF2 8E 30 30      [ 3] 1336 	ldx	#12336	; digit.323,
   0AF5 CC 32 30      [ 3] 1337 	ldd	#12848	;,
   0AF8 ED E4         [ 5] 1338 	std	,s	;, digit.324
   0AFA 16 FE 2F      [ 5] 1339 	lbra	L151	;
   0AFD                    1340 L254:
   0AFD 8C 00 3D      [ 4] 1341 	cmpx	#61	;cmphi:	; tmp2,
   0B00 10 26 FD E8   [ 6] 1342 	lbne	L141	;
   0B04 EC 64         [ 6] 1343 	ldd	4,s	;, n
   0B06 10 83 08 FF   [ 5] 1344 	cmpd	#2303	;cmphi:	;,
   0B0A 10 23 FD DE   [ 6] 1345 	lbls	L141	;
   0B0E 16 FA 93      [ 5] 1346 	lbra	L216	;
   0B11                    1347 L249:
   0B11 10 83 02 62   [ 5] 1348 	cmpd	#610	;cmphi:	; tmp1,
   0B15 10 27 00 D6   [ 6] 1349 	lbeq	L277	;
   0B19                    1350 L212:
   0B19 8E 30 30      [ 3] 1351 	ldx	#12336	; digit.321,
   0B1C CC 32 30      [ 3] 1352 	ldd	#12848	;,
   0B1F ED E4         [ 5] 1353 	std	,s	;, digit.322
   0B21 16 FD 76      [ 5] 1354 	lbra	L129	;
   0B24                    1355 L271:
   0B24 8C 17 D7      [ 4] 1356 	cmpx	#6103	;cmphi:	; tmp2,
   0B27 10 26 F9 C2   [ 6] 1357 	lbne	L119	;
   0B2B EC 64         [ 6] 1358 	ldd	4,s	;, n
   0B2D 10 83 83 FF   [ 5] 1359 	cmpd	#-31745	;cmphi:	;,
   0B31 10 23 F9 B8   [ 6] 1360 	lbls	L119	;
   0B35 16 FC D1      [ 5] 1361 	lbra	L208	;
   0B38                    1362 L262:
   0B38 AE E4         [ 5] 1363 	ldx	,s	;, digit.324
   0B3A 8C 30 30      [ 4] 1364 	cmpx	#12336	;cmphi:	;,
   0B3D 10 26 FB 23   [ 6] 1365 	lbne	L159	;
   0B41 10 8E 20 30   [ 4] 1366 	ldy	#8240	;,
   0B45 10 AF E4      [ 6] 1367 	sty	,s	;, digit.324
   0B48 16 FB 1B      [ 5] 1368 	lbra	L160	;
   0B4B                    1369 L252:
   0B4B AE E4         [ 5] 1370 	ldx	,s	;, digit.322
   0B4D 8C 30 30      [ 4] 1371 	cmpx	#12336	;cmphi:	;,
   0B50 10 26 FA 37   [ 6] 1372 	lbne	L137	;
   0B54 10 8E 20 30   [ 4] 1373 	ldy	#8240	;,
   0B58 10 AF E4      [ 6] 1374 	sty	,s	;, digit.322
   0B5B 16 FA 2F      [ 5] 1375 	lbra	L138	;
   0B5E                    1376 L264:
   0B5E 10 AE 64      [ 7] 1377 	ldy	4,s	;, n
   0B61 10 8C 9C 3F   [ 5] 1378 	cmpy	#-25537	;cmphi:	;,
   0B65 10 23 FE 15   [ 6] 1379 	lbls	L163	;
   0B69 16 FB 0E      [ 5] 1380 	lbra	L224	;
   0B6C                    1381 L275:
   0B6C EC 64         [ 6] 1382 	ldd	4,s	;, n
   0B6E 10 83 0D 3F   [ 5] 1383 	cmpd	#3391	;cmphi:	;,
   0B72 10 22 FA B8   [ 6] 1384 	lbhi	L154	;
   0B76 16 FD C5      [ 5] 1385 	lbra	L221	;
   0B79                    1386 L245:
   0B79 EC 64         [ 6] 1387 	ldd	4,s	;, n
   0B7B 10 83 C1 FF   [ 5] 1388 	cmpd	#-15873	;cmphi:	;,
   0B7F 10 23 F9 7A   [ 6] 1389 	lbls	L121	;
   0B83 16 FC A2      [ 5] 1390 	lbra	L209	;
   0B86                    1391 L274:
   0B86 EC 64         [ 6] 1392 	ldd	4,s	;, n
   0B88 10 83 2C FF   [ 5] 1393 	cmpd	#11519	;cmphi:	;,
   0B8C 10 22 F9 C5   [ 6] 1394 	lbhi	L132	;
   0B90 16 FD 19      [ 5] 1395 	lbra	L213	;
   0B93                    1396 L270:
   0B93 EC 64         [ 6] 1397 	ldd	4,s	;, n
   0B95 10 83 07 FF   [ 5] 1398 	cmpd	#2047	;cmphi:	;,
   0B99 10 23 FC 63   [ 6] 1399 	lbls	L117	;
   0B9D 16 F9 37      [ 5] 1400 	lbra	L207	;
   0BA0                    1401 L246:
   0BA0 EC 64         [ 6] 1402 	ldd	4,s	;, n
   0BA2 10 83 E0 FF   [ 5] 1403 	cmpd	#-7937	;cmphi:	;,
   0BA6 10 23 F9 63   [ 6] 1404 	lbls	L123	;
   0BAA 16 FC 9A      [ 5] 1405 	lbra	L210	;
   0BAD                    1406 L241:
   0BAD 10 8C 00 27   [ 5] 1407 	cmpy	#39	;cmphi:	; tmp1,
   0BB1 22 58         [ 3] 1408 	bhi	L196	;
   0BB3 CC 30 30      [ 3] 1409 	ldd	#12336	; digit.327,
   0BB6 8E 32 30      [ 3] 1410 	ldx	#12848	; digit.328,
   0BB9 16 FB DC      [ 5] 1411 	lbra	L195	;
   0BBC                    1412 L239:
   0BBC 10 8C 0F 9F   [ 5] 1413 	cmpy	#3999	;cmphi:	; tmp6,
   0BC0 22 61         [ 3] 1414 	bhi	L174	;
   0BC2 8E 30 30      [ 3] 1415 	ldx	#12336	; digit.325,
   0BC5 10 8E 32 30   [ 4] 1416 	ldy	#12848	;,
   0BC9 10 AF E4      [ 6] 1417 	sty	,s	;, digit.326
   0BCC 16 FB 24      [ 5] 1418 	lbra	L173	;
   0BCF                    1419 L240:
   0BCF 8C 01 8F      [ 4] 1420 	cmpx	#399	;cmphi:	;,
   0BD2 10 23 FB 6E   [ 6] 1421 	lbls	L185	;
   0BD6 EC 64         [ 6] 1422 	ldd	4,s	;, n
   0BD8 C3 FE 70      [ 4] 1423 	addd	#-400	;,
   0BDB ED 64         [ 6] 1424 	std	4,s	;, n
   0BDD EC 62         [ 6] 1425 	ldd	2,s	;, n
   0BDF C9 FF         [ 2] 1426 	adcb	#-1	;
   0BE1 89 FF         [ 2] 1427 	adca	#-1	;
   0BE3 ED 62         [ 6] 1428 	std	2,s	;, n
   0BE5 EC E4         [ 5] 1429 	ldd	,s	;, digit.326
   0BE7 C3 00 04      [ 4] 1430 	addd	#4; addhi3,3	;,
   0BEA ED E4         [ 5] 1431 	std	,s	;, digit.326
   0BEC 16 FB 55      [ 5] 1432 	lbra	L185	;
   0BEF                    1433 L277:
   0BEF 10 AE 64      [ 7] 1434 	ldy	4,s	;, n
   0BF2 10 8C 59 FF   [ 5] 1435 	cmpy	#23039	;cmphi:	;,
   0BF6 10 22 F9 38   [ 6] 1436 	lbhi	L130	;
   0BFA 16 FF 1C      [ 5] 1437 	lbra	L212	;
   0BFD                    1438 L276:
   0BFD 10 AE 64      [ 7] 1439 	ldy	4,s	;, n
   0C00 10 8C 1A 7F   [ 5] 1440 	cmpy	#6783	;cmphi:	;,
   0C04 10 22 FA 03   [ 6] 1441 	lbhi	L152	;
   0C08 16 FE E7      [ 5] 1442 	lbra	L220	;
   0C0B                    1443 L196:
   0C0B EC 64         [ 6] 1444 	ldd	4,s	;, n
   0C0D C3 FF D8      [ 4] 1445 	addd	#-40	;,
   0C10 ED 64         [ 6] 1446 	std	4,s	;, n
   0C12 EC 62         [ 6] 1447 	ldd	2,s	;, n
   0C14 C9 FF         [ 2] 1448 	adcb	#-1	;
   0C16 89 FF         [ 2] 1449 	adca	#-1	;
   0C18 ED 62         [ 6] 1450 	std	2,s	;, n
   0C1A CC 34 30      [ 3] 1451 	ldd	#13360	; digit.327,
   0C1D 8E 36 30      [ 3] 1452 	ldx	#13872	; digit.328,
   0C20 16 FB 75      [ 5] 1453 	lbra	L195	;
   0C23                    1454 L174:
   0C23 EC 64         [ 6] 1455 	ldd	4,s	;, n
   0C25 C3 F0 60      [ 4] 1456 	addd	#-4000	;,
   0C28 ED 64         [ 6] 1457 	std	4,s	;, n
   0C2A EC 62         [ 6] 1458 	ldd	2,s	;, n
   0C2C C9 FF         [ 2] 1459 	adcb	#-1	;
   0C2E 89 FF         [ 2] 1460 	adca	#-1	;
   0C30 ED 62         [ 6] 1461 	std	2,s	;, n
   0C32 8E 34 30      [ 3] 1462 	ldx	#13360	; digit.325,
   0C35 10 8E 36 30   [ 4] 1463 	ldy	#13872	;,
   0C39 10 AF E4      [ 6] 1464 	sty	,s	;, digit.326
   0C3C 16 FA B4      [ 5] 1465 	lbra	L173	;
                           1466 	.globl	_lltoa
   0C3F                    1467 _lltoa:
   0C3F 8E 00 00      [ 3] 1468 	ldx	#_stringBuffer12	;,
   0C42 7E 04 87      [ 4] 1469 	jmp	__lltoa	;
                           1470 	.globl	_lltoa_s
   0C45                    1471 _lltoa_s:
   0C45 32 7C         [ 5] 1472 	leas	-4,s	;,,
   0C47 AE 66         [ 6] 1473 	ldx	6,s	;, n
   0C49 AF E4         [ 5] 1474 	stx	,s	;,
   0C4B AE 68         [ 6] 1475 	ldx	8,s	;, n
   0C4D AF 62         [ 6] 1476 	stx	2,s	;,
   0C4F 8E 00 00      [ 3] 1477 	ldx	#_stringBuffer12	;,
   0C52 BD 04 87      [ 8] 1478 	jsr	__lltoa
   0C55 32 64         [ 5] 1479 	leas	4,s	;,,
   0C57 8E 00 00      [ 3] 1480 	ldx	#_stringBuffer12	;,
   0C5A 7E 00 3A      [ 4] 1481 	jmp	_removeSpaces	;
                           1482 	.globl	__fll_s
   0C5D                    1483 __fll_s:
   0C5D 34 60         [ 7] 1484 	pshs	y,u	;
   0C5F 32 77         [ 5] 1485 	leas	-9,s	;,,
   0C61 AF 64         [ 6] 1486 	stx	4,s	; s1, s1
   0C63 AE 6F         [ 6] 1487 	ldx	15,s	;, i
   0C65 AF E4         [ 5] 1488 	stx	,s	;,
   0C67 EC E8 11      [ 6] 1489 	ldd	17,s	;, i
   0C6A ED 62         [ 6] 1490 	std	2,s	;,
   0C6C 8E 00 00      [ 3] 1491 	ldx	#_stringBuffer12	;,
   0C6F BD 04 87      [ 8] 1492 	jsr	__lltoa
   0C72 8E 00 00      [ 3] 1493 	ldx	#_stringBuffer12	;,
   0C75 BD 00 3A      [ 8] 1494 	jsr	_removeSpaces
   0C78 EE 64         [ 6] 1495 	ldu	4,s	; s1.392, s1
   0C7A E6 C0         [ 6] 1496 	ldb	,u+	;,
   0C7C E7 68         [ 5] 1497 	stb	8,s	;, c.391
   0C7E 32 64         [ 5] 1498 	leas	4,s	;,,
   0C80 10 8E 00 00   [ 4] 1499 	ldy	#_stringBuffer40	; to,
   0C84 C1 25         [ 2] 1500 	cmpb	#37	;cmpqi:	;,
   0C86 27 2C         [ 3] 1501 	beq	L284	;
   0C88 CE 00 00      [ 3] 1502 	ldu	#0	; ivtmp.390,
   0C8B 20 02         [ 3] 1503 	bra	L285	;
   0C8D                    1504 L293:
   0C8D EE 62         [ 6] 1505 	ldu	2,s	; ivtmp.390, ivtmp.382
   0C8F                    1506 L285:
   0C8F E6 64         [ 5] 1507 	ldb	4,s	;, c.391
   0C91 E7 C9 00 00   [ 8] 1508 	stb	_stringBuffer40,u	;,
   0C95 30 41         [ 5] 1509 	leax	1,u	;,, ivtmp.390
   0C97 AF 62         [ 6] 1510 	stx	2,s	;, ivtmp.382
   0C99 31 89 00 00   [ 8] 1511 	leay	_stringBuffer40,x	; to,,
   0C9D EC E4         [ 5] 1512 	ldd	,s	;, s1
   0C9F 30 CB         [ 8] 1513 	leax	d,u	; tmp39,, ivtmp.390
   0CA1 E6 01         [ 5] 1514 	ldb	1,x	;,
   0CA3 E7 64         [ 5] 1515 	stb	4,s	;, c.391
   0CA5 1F 30         [ 6] 1516 	tfr	u,d	; ivtmp.390, tmp40
   0CA7 C3 00 02      [ 4] 1517 	addd	#2; addhi3,3	; tmp40,
   0CAA AE E4         [ 5] 1518 	ldx	,s	;, s1
   0CAC 33 8B         [ 8] 1519 	leau	d,x	; s1.392, tmp40,
   0CAE E6 64         [ 5] 1520 	ldb	4,s	;, c.391
   0CB0 C1 25         [ 2] 1521 	cmpb	#37	;cmpqi:	;,
   0CB2 26 D9         [ 3] 1522 	bne	L293	;
   0CB4                    1523 L284:
   0CB4 F6 00 00      [ 5] 1524 	ldb	_stringBuffer12	; c.389, stringBuffer12
   0CB7 27 09         [ 3] 1525 	beq	L286	;
   0CB9 8E 00 01      [ 3] 1526 	ldx	#_stringBuffer12+1	; s2,
   0CBC                    1527 L287:
   0CBC E7 A0         [ 6] 1528 	stb	,y+	; c.389,
   0CBE E6 80         [ 6] 1529 	ldb	,x+	; c.389,
   0CC0 26 FA         [ 3] 1530 	bne	L287	;
   0CC2                    1531 L286:
   0CC2 E6 C4         [ 4] 1532 	ldb	,u	; c,* s1.392
   0CC4 27 08         [ 3] 1533 	beq	L288	;
   0CC6 30 41         [ 5] 1534 	leax	1,u	; s1.388,, s1.392
   0CC8                    1535 L289:
   0CC8 E7 A0         [ 6] 1536 	stb	,y+	; c,
   0CCA E6 80         [ 6] 1537 	ldb	,x+	; c,
   0CCC 26 FA         [ 3] 1538 	bne	L289	;
   0CCE                    1539 L288:
   0CCE C6 80         [ 2] 1540 	ldb	#-128	;,
   0CD0 E7 A4         [ 4] 1541 	stb	,y	;,* to
   0CD2 32 65         [ 5] 1542 	leas	5,s	;,,
   0CD4 35 E0         [ 8] 1543 	puls	y,u,pc	;
                           1544 	.globl	_setRandSeedNP
   0CD6                    1545 _setRandSeedNP:
   0CD6 32 7C         [ 5] 1546 	leas	-4,s	;,,
   0CD8 F6 00 00      [ 5] 1547 	ldb	__x	;, _x
   0CDB E7 E4         [ 4] 1548 	stb	,s	;, _x.14
   0CDD C6 81         [ 2] 1549 	ldb	#-127	; tmp32,
   0CDF E0 E4         [ 4] 1550 	subb	,s	; tmp32, _x.14
   0CE1 E7 61         [ 5] 1551 	stb	1,s	; tmp32, _c.17
   0CE3 E6 E4         [ 4] 1552 	ldb	,s	;, _x.14
   0CE5 5C            [ 2] 1553 	incb	;
   0CE6 E7 62         [ 5] 1554 	stb	2,s	;, _x.18
   0CE8 F7 00 00      [ 5] 1555 	stb	__x	;, _x
   0CEB C6 49         [ 2] 1556 	ldb	#73	; tmp34,
   0CED E0 E4         [ 4] 1557 	subb	,s	; tmp33, _x.14
   0CEF E8 61         [ 5] 1558 	eorb	1,s	; tmp33, _c.17
   0CF1 E8 62         [ 5] 1559 	eorb	2,s	; tmp33, _x.18
   0CF3 E7 63         [ 5] 1560 	stb	3,s	; tmp33, _a.21
   0CF5 F7 00 00      [ 5] 1561 	stb	__a	; tmp33, _a
   0CF8 E0 E4         [ 4] 1562 	subb	,s	; _b.23, _x.14
   0CFA CB D3         [ 2] 1563 	addb	#-45	; _b.23,
   0CFC F7 00 00      [ 5] 1564 	stb	__b	; _b.23, _b
   0CFF 54            [ 2] 1565 	lsrb	; _b.23
   0D00 EB 61         [ 5] 1566 	addb	1,s	; _b.23, _c.17
   0D02 E8 63         [ 5] 1567 	eorb	3,s	; _b.23, _a.21
   0D04 F7 00 00      [ 5] 1568 	stb	__c	; _b.23, _c
   0D07 32 64         [ 5] 1569 	leas	4,s	;,,
   0D09 39            [ 5] 1570 	rts
                           1571 	.globl	_initString
   0D0A                    1572 _initString:
   0D0A C6 0C         [ 2] 1573 	ldb	#12	;,
   0D0C F7 00 00      [ 5] 1574 	stb	__x	;, _x
   0D0F CB 38         [ 2] 1575 	addb	#56	;,
   0D11 F7 00 00      [ 5] 1576 	stb	__a	;, _a
   0D14 C6 0C         [ 2] 1577 	ldb	#12	;,
   0D16 F7 00 00      [ 5] 1578 	stb	__b	;, _b
   0D19 C6 38         [ 2] 1579 	ldb	#56	;,
   0D1B F7 00 00      [ 5] 1580 	stb	__c	;, _c
   0D1E 7F 00 00      [ 7] 1581 	clr	_msgLine	; msgLine
   0D21 7F 00 00      [ 7] 1582 	clr	__YC	; _YC
   0D24 C6 90         [ 2] 1583 	ldb	#-112	;,
   0D26 F7 00 00      [ 5] 1584 	stb	__XC	;, _XC
   0D29 39            [ 5] 1585 	rts
                           1586 	.globl	__fi
   0D2A                    1587 __fi:
   0D2A 34 60         [ 7] 1588 	pshs	y,u	;
   0D2C 32 77         [ 5] 1589 	leas	-9,s	;,,
   0D2E AF 62         [ 6] 1590 	stx	2,s	; s1, s1
   0D30 BD 00 5A      [ 8] 1591 	jsr	_itoa
   0D33 AF 64         [ 6] 1592 	stx	4,s	;, D.3226
   0D35 AE 62         [ 6] 1593 	ldx	2,s	;, s1
   0D37 30 01         [ 5] 1594 	leax	1,x	;,,
   0D39 AF E4         [ 5] 1595 	stx	,s	;, s1.452
   0D3B 30 1F         [ 5] 1596 	leax	-1,x	;,,
   0D3D E6 80         [ 6] 1597 	ldb	,x+	;,
   0D3F E7 68         [ 5] 1598 	stb	8,s	;, c.451
   0D41 10 8E 00 00   [ 4] 1599 	ldy	#_stringBuffer40	; to,
   0D45 C1 25         [ 2] 1600 	cmpb	#37	;cmpqi:	;,
   0D47 27 2E         [ 3] 1601 	beq	L300	;
   0D49 CE 00 00      [ 3] 1602 	ldu	#0	; ivtmp.442,
   0D4C 20 02         [ 3] 1603 	bra	L301	;
   0D4E                    1604 L309:
   0D4E EE 66         [ 6] 1605 	ldu	6,s	; ivtmp.442, ivtmp.449
   0D50                    1606 L301:
   0D50 E6 68         [ 5] 1607 	ldb	8,s	;, c.451
   0D52 E7 C9 00 00   [ 8] 1608 	stb	_stringBuffer40,u	;,
   0D56 30 41         [ 5] 1609 	leax	1,u	;,, ivtmp.442
   0D58 AF 66         [ 6] 1610 	stx	6,s	;, ivtmp.449
   0D5A 31 89 00 00   [ 8] 1611 	leay	_stringBuffer40,x	; to,,
   0D5E EC 62         [ 6] 1612 	ldd	2,s	;, s1
   0D60 30 CB         [ 8] 1613 	leax	d,u	; tmp41,, ivtmp.442
   0D62 E6 01         [ 5] 1614 	ldb	1,x	;,
   0D64 E7 68         [ 5] 1615 	stb	8,s	;, c.451
   0D66 1F 30         [ 6] 1616 	tfr	u,d	; ivtmp.442, tmp42
   0D68 C3 00 02      [ 4] 1617 	addd	#2; addhi3,3	; tmp42,
   0D6B AE 62         [ 6] 1618 	ldx	2,s	;, s1
   0D6D 30 8B         [ 8] 1619 	leax	d,x	;, tmp42,
   0D6F AF E4         [ 5] 1620 	stx	,s	;, s1.452
   0D71 E6 68         [ 5] 1621 	ldb	8,s	;, c.451
   0D73 C1 25         [ 2] 1622 	cmpb	#37	;cmpqi:	;,
   0D75 26 D7         [ 3] 1623 	bne	L309	;
   0D77                    1624 L300:
   0D77 AE 64         [ 6] 1625 	ldx	4,s	;, D.3226
   0D79 E6 84         [ 4] 1626 	ldb	,x	; c.450,
   0D7B 27 08         [ 3] 1627 	beq	L302	;
   0D7D 30 01         [ 5] 1628 	leax	1,x	; s2,,
   0D7F                    1629 L303:
   0D7F E7 A0         [ 6] 1630 	stb	,y+	; c.450,
   0D81 E6 80         [ 6] 1631 	ldb	,x+	; c.450,
   0D83 26 FA         [ 3] 1632 	bne	L303	;
   0D85                    1633 L302:
   0D85 EE E4         [ 5] 1634 	ldu	,s	;, s1.452
   0D87 E6 C4         [ 4] 1635 	ldb	,u	; c,
   0D89 27 08         [ 3] 1636 	beq	L304	;
   0D8B 30 41         [ 5] 1637 	leax	1,u	; s1.448,,
   0D8D                    1638 L305:
   0D8D E7 A0         [ 6] 1639 	stb	,y+	; c,
   0D8F E6 80         [ 6] 1640 	ldb	,x+	; c,
   0D91 26 FA         [ 3] 1641 	bne	L305	;
   0D93                    1642 L304:
   0D93 C6 80         [ 2] 1643 	ldb	#-128	;,
   0D95 E7 A4         [ 4] 1644 	stb	,y	;,* to
   0D97 8E 00 00      [ 3] 1645 	ldx	#_stringBuffer40	;,
   0D9A 32 69         [ 5] 1646 	leas	9,s	;,,
   0D9C 35 E0         [ 8] 1647 	puls	y,u,pc	;
                           1648 	.globl	__fi_s_s
   0D9E                    1649 __fi_s_s:
   0D9E 34 60         [ 7] 1650 	pshs	y,u	;
   0DA0 32 77         [ 5] 1651 	leas	-9,s	;,,
   0DA2 AF 62         [ 6] 1652 	stx	2,s	; s1, s1
   0DA4 BD 0E 12      [ 8] 1653 	jsr	_itoa_s_s
   0DA7 AF 64         [ 6] 1654 	stx	4,s	;, D.3233
   0DA9 AE 62         [ 6] 1655 	ldx	2,s	;, s1
   0DAB 30 01         [ 5] 1656 	leax	1,x	;,,
   0DAD AF E4         [ 5] 1657 	stx	,s	;, s1.492
   0DAF 30 1F         [ 5] 1658 	leax	-1,x	;,,
   0DB1 E6 80         [ 6] 1659 	ldb	,x+	;,
   0DB3 E7 68         [ 5] 1660 	stb	8,s	;, c.491
   0DB5 10 8E 00 00   [ 4] 1661 	ldy	#_stringBuffer40	; to,
   0DB9 C1 25         [ 2] 1662 	cmpb	#37	;cmpqi:	;,
   0DBB 27 2E         [ 3] 1663 	beq	L312	;
   0DBD CE 00 00      [ 3] 1664 	ldu	#0	; ivtmp.482,
   0DC0 20 02         [ 3] 1665 	bra	L313	;
   0DC2                    1666 L321:
   0DC2 EE 66         [ 6] 1667 	ldu	6,s	; ivtmp.482, ivtmp.489
   0DC4                    1668 L313:
   0DC4 E6 68         [ 5] 1669 	ldb	8,s	;, c.491
   0DC6 E7 C9 00 00   [ 8] 1670 	stb	_stringBuffer40,u	;,
   0DCA 30 41         [ 5] 1671 	leax	1,u	;,, ivtmp.482
   0DCC AF 66         [ 6] 1672 	stx	6,s	;, ivtmp.489
   0DCE 31 89 00 00   [ 8] 1673 	leay	_stringBuffer40,x	; to,,
   0DD2 EC 62         [ 6] 1674 	ldd	2,s	;, s1
   0DD4 30 CB         [ 8] 1675 	leax	d,u	; tmp41,, ivtmp.482
   0DD6 E6 01         [ 5] 1676 	ldb	1,x	;,
   0DD8 E7 68         [ 5] 1677 	stb	8,s	;, c.491
   0DDA 1F 30         [ 6] 1678 	tfr	u,d	; ivtmp.482, tmp42
   0DDC C3 00 02      [ 4] 1679 	addd	#2; addhi3,3	; tmp42,
   0DDF AE 62         [ 6] 1680 	ldx	2,s	;, s1
   0DE1 30 8B         [ 8] 1681 	leax	d,x	;, tmp42,
   0DE3 AF E4         [ 5] 1682 	stx	,s	;, s1.492
   0DE5 E6 68         [ 5] 1683 	ldb	8,s	;, c.491
   0DE7 C1 25         [ 2] 1684 	cmpb	#37	;cmpqi:	;,
   0DE9 26 D7         [ 3] 1685 	bne	L321	;
   0DEB                    1686 L312:
   0DEB AE 64         [ 6] 1687 	ldx	4,s	;, D.3233
   0DED E6 84         [ 4] 1688 	ldb	,x	; c.490,
   0DEF 27 08         [ 3] 1689 	beq	L314	;
   0DF1 30 01         [ 5] 1690 	leax	1,x	; s2,,
   0DF3                    1691 L315:
   0DF3 E7 A0         [ 6] 1692 	stb	,y+	; c.490,
   0DF5 E6 80         [ 6] 1693 	ldb	,x+	; c.490,
   0DF7 26 FA         [ 3] 1694 	bne	L315	;
   0DF9                    1695 L314:
   0DF9 EE E4         [ 5] 1696 	ldu	,s	;, s1.492
   0DFB E6 C4         [ 4] 1697 	ldb	,u	; c,
   0DFD 27 08         [ 3] 1698 	beq	L316	;
   0DFF 30 41         [ 5] 1699 	leax	1,u	; s1.488,,
   0E01                    1700 L317:
   0E01 E7 A0         [ 6] 1701 	stb	,y+	; c,
   0E03 E6 80         [ 6] 1702 	ldb	,x+	; c,
   0E05 26 FA         [ 3] 1703 	bne	L317	;
   0E07                    1704 L316:
   0E07 C6 80         [ 2] 1705 	ldb	#-128	;,
   0E09 E7 A4         [ 4] 1706 	stb	,y	;,* to
   0E0B 8E 00 00      [ 3] 1707 	ldx	#_stringBuffer40	;,
   0E0E 32 69         [ 5] 1708 	leas	9,s	;,,
   0E10 35 E0         [ 8] 1709 	puls	y,u,pc	;
                           1710 	.globl	_itoa_s_s
   0E12                    1711 _itoa_s_s:
   0E12 32 7D         [ 5] 1712 	leas	-3,s	;,,
   0E14 E7 E4         [ 4] 1713 	stb	,s	; n, n
   0E16 10 2D 00 8F   [ 6] 1714 	lblt	L323	;
   0E1A 6F 61         [ 7] 1715 	clr	1,s	; sign
   0E1C                    1716 L324:
   0E1C E6 E4         [ 4] 1717 	ldb	,s	;, n
   0E1E C1 63         [ 2] 1718 	cmpb	#99	;cmpqi:	;,
   0E20 2F 57         [ 3] 1719 	ble	L325	;
   0E22 CB 9C         [ 2] 1720 	addb	#-100	;,
   0E24 E7 E4         [ 4] 1721 	stb	,s	;, n
   0E26 8E 31 30      [ 3] 1722 	ldx	#12592	; digit,
   0E29 6F 62         [ 7] 1723 	clr	2,s	; useSpace
   0E2B                    1724 L326:
   0E2B C1 13         [ 2] 1725 	cmpb	#19	;cmpqi:	;,
   0E2D 2F 06         [ 3] 1726 	ble	L328	;
   0E2F CB EC         [ 2] 1727 	addb	#-20	;,
   0E31 E7 E4         [ 4] 1728 	stb	,s	;, n
   0E33 30 02         [ 5] 1729 	leax	2,x	; digit,, digit
   0E35                    1730 L328:
   0E35 C1 09         [ 2] 1731 	cmpb	#9	;cmpqi:	;,
   0E37 2F 55         [ 3] 1732 	ble	L330	;
   0E39                    1733 L336:
   0E39 CB F6         [ 2] 1734 	addb	#-10	;,
   0E3B E7 E4         [ 4] 1735 	stb	,s	;, n
   0E3D 30 01         [ 5] 1736 	leax	1,x	; digit,, digit
   0E3F                    1737 L331:
   0E3F BF 00 00      [ 6] 1738 	stx	_stringBuffer6	; digit,
   0E42 E6 E4         [ 4] 1739 	ldb	,s	;, n
   0E44 CB 30         [ 2] 1740 	addb	#48	;,
   0E46 F7 00 02      [ 5] 1741 	stb	_stringBuffer6+2	;, stringBuffer6
   0E49 7F 00 03      [ 7] 1742 	clr	_stringBuffer6+3	; stringBuffer6
   0E4C 8E 00 00      [ 3] 1743 	ldx	#_stringBuffer6	;,
   0E4F BD 00 3A      [ 8] 1744 	jsr	_removeSpaces
   0E52 F6 00 03      [ 5] 1745 	ldb	_stringBuffer6+3	;, stringBuffer6
   0E55 F7 00 04      [ 5] 1746 	stb	_stringBuffer6+4	;, stringBuffer6
   0E58 F6 00 02      [ 5] 1747 	ldb	_stringBuffer6+2	;, stringBuffer6
   0E5B F7 00 03      [ 5] 1748 	stb	_stringBuffer6+3	;, stringBuffer6
   0E5E F6 00 01      [ 5] 1749 	ldb	_stringBuffer6+1	;, stringBuffer6
   0E61 F7 00 02      [ 5] 1750 	stb	_stringBuffer6+2	;, stringBuffer6
   0E64 F6 00 00      [ 5] 1751 	ldb	_stringBuffer6	;, stringBuffer6
   0E67 F7 00 01      [ 5] 1752 	stb	_stringBuffer6+1	;, stringBuffer6
   0E6A 6D 61         [ 7] 1753 	tst	1,s	; sign
   0E6C 26 30         [ 3] 1754 	bne	L335	;
   0E6E C6 2B         [ 2] 1755 	ldb	#43	;,
   0E70 F7 00 00      [ 5] 1756 	stb	_stringBuffer6	;, stringBuffer6
   0E73 8E 00 00      [ 3] 1757 	ldx	#_stringBuffer6	;,
   0E76 32 63         [ 5] 1758 	leas	3,s	;,,
   0E78 39            [ 5] 1759 	rts
   0E79                    1760 L325:
   0E79 C1 4F         [ 2] 1761 	cmpb	#79	;cmpqi:	;,
   0E7B 2F 35         [ 3] 1762 	ble	L327	;
   0E7D CB B0         [ 2] 1763 	addb	#-80	;,
   0E7F E7 E4         [ 4] 1764 	stb	,s	;, n
   0E81 8E 20 38      [ 3] 1765 	ldx	#8248	; digit,
   0E84 C6 01         [ 2] 1766 	ldb	#1	;,
   0E86 E7 62         [ 5] 1767 	stb	2,s	;, useSpace
   0E88 E6 E4         [ 4] 1768 	ldb	,s	;, n
   0E8A C1 09         [ 2] 1769 	cmpb	#9	;cmpqi:	;,
   0E8C 2E AB         [ 3] 1770 	bgt	L336	;
   0E8E                    1771 L330:
   0E8E 8C 20 30      [ 4] 1772 	cmpx	#8240	;cmphi:	; digit,
   0E91 26 AC         [ 3] 1773 	bne	L331	;
   0E93 E6 62         [ 5] 1774 	ldb	2,s	;, useSpace
   0E95 C1 01         [ 2] 1775 	cmpb	#1	;cmpqi:	;,
   0E97 26 A6         [ 3] 1776 	bne	L331	;
   0E99 8E 20 20      [ 3] 1777 	ldx	#8224	; digit,
   0E9C 20 A1         [ 3] 1778 	bra	L331	;
   0E9E                    1779 L335:
   0E9E C6 2D         [ 2] 1780 	ldb	#45	;,
   0EA0 F7 00 00      [ 5] 1781 	stb	_stringBuffer6	;, stringBuffer6
   0EA3 8E 00 00      [ 3] 1782 	ldx	#_stringBuffer6	;,
   0EA6 32 63         [ 5] 1783 	leas	3,s	;,,
   0EA8 39            [ 5] 1784 	rts
   0EA9                    1785 L323:
   0EA9 60 E4         [ 6] 1786 	neg	,s	; n
   0EAB C6 01         [ 2] 1787 	ldb	#1	;,
   0EAD E7 61         [ 5] 1788 	stb	1,s	;, sign
   0EAF 16 FF 6A      [ 5] 1789 	lbra	L324	;
   0EB2                    1790 L327:
   0EB2 8E 20 30      [ 3] 1791 	ldx	#8240	; digit,
   0EB5 C6 01         [ 2] 1792 	ldb	#1	;,
   0EB7 E7 62         [ 5] 1793 	stb	2,s	;, useSpace
   0EB9 E6 E4         [ 4] 1794 	ldb	,s	;, n
   0EBB C1 27         [ 2] 1795 	cmpb	#39	;cmpqi:	;,
   0EBD 10 2F FF 6A   [ 6] 1796 	lble	L326	;
   0EC1 CB D8         [ 2] 1797 	addb	#-40	;,
   0EC3 E7 E4         [ 4] 1798 	stb	,s	;, n
   0EC5 8E 20 34      [ 3] 1799 	ldx	#8244	; digit,
   0EC8 C6 01         [ 2] 1800 	ldb	#1	;,
   0ECA E7 62         [ 5] 1801 	stb	2,s	;, useSpace
   0ECC E6 E4         [ 4] 1802 	ldb	,s	;, n
   0ECE 16 FF 5A      [ 5] 1803 	lbra	L326	;
                           1804 	.globl	_ltoa_s
   0ED1                    1805 _ltoa_s:
   0ED1 34 20         [ 6] 1806 	pshs	y	;
   0ED3 10 8E 00 00   [ 4] 1807 	ldy	#_stringBuffer6	; tmp30,
   0ED7 34 20         [ 6] 1808 	pshs	y	; tmp30
   0ED9 C6 01         [ 2] 1809 	ldb	#1	;,
   0EDB BD 01 E0      [ 8] 1810 	jsr	__ltoa
   0EDE 32 62         [ 5] 1811 	leas	2,s	;,,
   0EE0 30 A4         [ 4] 1812 	leax	,y	;, tmp30
   0EE2 35 20         [ 6] 1813 	puls	y	;
   0EE4 7E 00 3A      [ 4] 1814 	jmp	_removeSpaces	;
                           1815 	.globl	__fss
   0EE7                    1816 __fss:
   0EE7 34 60         [ 7] 1817 	pshs	y,u	;
   0EE9 32 77         [ 5] 1818 	leas	-9,s	;,,
   0EEB AF 64         [ 6] 1819 	stx	4,s	; s1, s1
   0EED 30 01         [ 5] 1820 	leax	1,x	; s1,, s1
   0EEF AF 62         [ 6] 1821 	stx	2,s	; s1, s1.575
   0EF1 30 1F         [ 5] 1822 	leax	-1,x	; s1,, s1
   0EF3 E6 80         [ 6] 1823 	ldb	,x+	;,
   0EF5 E7 68         [ 5] 1824 	stb	8,s	;, c.574
   0EF7 10 8E 00 00   [ 4] 1825 	ldy	#_stringBuffer40	; to,
   0EFB C1 25         [ 2] 1826 	cmpb	#37	;cmpqi:	;,
   0EFD 27 2E         [ 3] 1827 	beq	L341	;
   0EFF CE 00 00      [ 3] 1828 	ldu	#0	; ivtmp.560,
   0F02 20 02         [ 3] 1829 	bra	L342	;
   0F04                    1830 L357:
   0F04 EE 66         [ 6] 1831 	ldu	6,s	; ivtmp.560, ivtmp.566
   0F06                    1832 L342:
   0F06 E6 68         [ 5] 1833 	ldb	8,s	;, c.574
   0F08 E7 C9 00 00   [ 8] 1834 	stb	_stringBuffer40,u	;,
   0F0C 30 41         [ 5] 1835 	leax	1,u	;,, ivtmp.560
   0F0E AF 66         [ 6] 1836 	stx	6,s	;, ivtmp.566
   0F10 31 89 00 00   [ 8] 1837 	leay	_stringBuffer40,x	; to,,
   0F14 EC 64         [ 6] 1838 	ldd	4,s	;, s1
   0F16 30 CB         [ 8] 1839 	leax	d,u	; tmp44,, ivtmp.560
   0F18 E6 01         [ 5] 1840 	ldb	1,x	;,
   0F1A E7 68         [ 5] 1841 	stb	8,s	;, c.574
   0F1C 1F 30         [ 6] 1842 	tfr	u,d	; ivtmp.560, tmp45
   0F1E C3 00 02      [ 4] 1843 	addd	#2; addhi3,3	; tmp45,
   0F21 AE 64         [ 6] 1844 	ldx	4,s	;, s1
   0F23 30 8B         [ 8] 1845 	leax	d,x	;, tmp45,
   0F25 AF 62         [ 6] 1846 	stx	2,s	;, s1.575
   0F27 E6 68         [ 5] 1847 	ldb	8,s	;, c.574
   0F29 C1 25         [ 2] 1848 	cmpb	#37	;cmpqi:	;,
   0F2B 26 D7         [ 3] 1849 	bne	L357	;
   0F2D                    1850 L341:
   0F2D AE 6F         [ 6] 1851 	ldx	15,s	;, s2
   0F2F E6 84         [ 4] 1852 	ldb	,x	; c.572,
   0F31 27 08         [ 3] 1853 	beq	L343	;
   0F33 30 01         [ 5] 1854 	leax	1,x	; s2.573,,
   0F35                    1855 L344:
   0F35 E7 A0         [ 6] 1856 	stb	,y+	; c.572,
   0F37 E6 80         [ 6] 1857 	ldb	,x+	; c.572,
   0F39 26 FA         [ 3] 1858 	bne	L344	;
   0F3B                    1859 L343:
   0F3B EE 62         [ 6] 1860 	ldu	2,s	; s1.571, s1.575
   0F3D E6 C0         [ 6] 1861 	ldb	,u+	; c.570,
   0F3F C1 25         [ 2] 1862 	cmpb	#37	;cmpqi:	; c.570,
   0F41 27 08         [ 3] 1863 	beq	L345	;
   0F43                    1864 L352:
   0F43 E7 A0         [ 6] 1865 	stb	,y+	; c.570,
   0F45 E6 C0         [ 6] 1866 	ldb	,u+	; c.570,
   0F47 C1 25         [ 2] 1867 	cmpb	#37	;cmpqi:	; c.570,
   0F49 26 F8         [ 3] 1868 	bne	L352	;
   0F4B                    1869 L345:
   0F4B AE E8 11      [ 6] 1870 	ldx	17,s	;, s3
   0F4E E6 84         [ 4] 1871 	ldb	,x	; c.568,
   0F50 27 12         [ 3] 1872 	beq	L347	;
   0F52 30 01         [ 5] 1873 	leax	1,x	;,,
   0F54 AF E4         [ 5] 1874 	stx	,s	;, s3.567
   0F56                    1875 L348:
   0F56 E7 A0         [ 6] 1876 	stb	,y+	; c.568,
   0F58 AE E4         [ 5] 1877 	ldx	,s	;, s3.567
   0F5A 30 01         [ 5] 1878 	leax	1,x	;,,
   0F5C AF E4         [ 5] 1879 	stx	,s	;, s3.567
   0F5E 30 1F         [ 5] 1880 	leax	-1,x	;,,
   0F60 E6 80         [ 6] 1881 	ldb	,x+	; c.568,
   0F62 26 F2         [ 3] 1882 	bne	L348	;
   0F64                    1883 L347:
   0F64 E6 C4         [ 4] 1884 	ldb	,u	; c,* s1.571
   0F66 27 08         [ 3] 1885 	beq	L349	;
   0F68 30 41         [ 5] 1886 	leax	1,u	; s1.569,, s1.571
   0F6A                    1887 L350:
   0F6A E7 A0         [ 6] 1888 	stb	,y+	; c,
   0F6C E6 80         [ 6] 1889 	ldb	,x+	; c,
   0F6E 26 FA         [ 3] 1890 	bne	L350	;
   0F70                    1891 L349:
   0F70 C6 80         [ 2] 1892 	ldb	#-128	;,
   0F72 E7 A4         [ 4] 1893 	stb	,y	;,* to
   0F74 32 69         [ 5] 1894 	leas	9,s	;,,
   0F76 35 E0         [ 8] 1895 	puls	y,u,pc	;
                           1896 	.globl	__fsi2_s
   0F78                    1897 __fsi2_s:
   0F78 34 60         [ 7] 1898 	pshs	y,u	;
   0F7A 32 79         [ 5] 1899 	leas	-7,s	;,,
   0F7C AF 62         [ 6] 1900 	stx	2,s	; s1, s1
   0F7E BD 00 5A      [ 8] 1901 	jsr	_itoa
   0F81 8E 00 00      [ 3] 1902 	ldx	#_stringBuffer4	;,
   0F84 BD 00 3A      [ 8] 1903 	jsr	_removeSpaces
   0F87 EE 62         [ 6] 1904 	ldu	2,s	; s1.630, s1
   0F89 E6 C0         [ 6] 1905 	ldb	,u+	;,
   0F8B E7 66         [ 5] 1906 	stb	6,s	;, c.629
   0F8D 8E 00 00      [ 3] 1907 	ldx	#_stringBuffer40	;,
   0F90 AF 64         [ 6] 1908 	stx	4,s	;, to
   0F92 C1 25         [ 2] 1909 	cmpb	#37	;cmpqi:	;,
   0F94 27 2C         [ 3] 1910 	beq	L360	;
   0F96 CE 00 00      [ 3] 1911 	ldu	#0	; ivtmp.616,
   0F99 20 02         [ 3] 1912 	bra	L361	;
   0F9B                    1913 L375:
   0F9B 33 A4         [ 4] 1914 	leau	,y	; ivtmp.616, ivtmp.625
   0F9D                    1915 L361:
   0F9D E6 66         [ 5] 1916 	ldb	6,s	;, c.629
   0F9F E7 C9 00 00   [ 8] 1917 	stb	_stringBuffer40,u	;,
   0FA3 31 41         [ 5] 1918 	leay	1,u	; ivtmp.625,, ivtmp.616
   0FA5 30 A9 00 00   [ 8] 1919 	leax	_stringBuffer40,y	;,, ivtmp.625
   0FA9 AF 64         [ 6] 1920 	stx	4,s	;, to
   0FAB EC 62         [ 6] 1921 	ldd	2,s	;, s1
   0FAD 30 CB         [ 8] 1922 	leax	d,u	; tmp45,, ivtmp.616
   0FAF E6 01         [ 5] 1923 	ldb	1,x	;,
   0FB1 E7 66         [ 5] 1924 	stb	6,s	;, c.629
   0FB3 1F 30         [ 6] 1925 	tfr	u,d	; ivtmp.616, tmp46
   0FB5 C3 00 02      [ 4] 1926 	addd	#2; addhi3,3	; tmp46,
   0FB8 AE 62         [ 6] 1927 	ldx	2,s	;, s1
   0FBA 33 8B         [ 8] 1928 	leau	d,x	; s1.630, tmp46,
   0FBC E6 66         [ 5] 1929 	ldb	6,s	;, c.629
   0FBE C1 25         [ 2] 1930 	cmpb	#37	;cmpqi:	;,
   0FC0 26 D9         [ 3] 1931 	bne	L375	;
   0FC2                    1932 L360:
   0FC2 AE 64         [ 6] 1933 	ldx	4,s	; to.622, to
   0FC4 F6 00 00      [ 5] 1934 	ldb	_stringBuffer4	;, stringBuffer4
   0FC7 E7 80         [ 6] 1935 	stb	,x+	;,
   0FC9 F6 00 01      [ 5] 1936 	ldb	_stringBuffer4+1	; D.3307, stringBuffer4
   0FCC 27 02         [ 3] 1937 	beq	L362	;
   0FCE E7 80         [ 6] 1938 	stb	,x+	; D.3307,
   0FD0                    1939 L362:
   0FD0 F6 00 02      [ 5] 1940 	ldb	_stringBuffer4+2	; D.3309, stringBuffer4
   0FD3 27 02         [ 3] 1941 	beq	L363	;
   0FD5 E7 80         [ 6] 1942 	stb	,x+	; D.3309,
   0FD7                    1943 L363:
   0FD7 31 C4         [ 4] 1944 	leay	,u	; s1.628, s1.630
   0FD9 E6 A0         [ 6] 1945 	ldb	,y+	; c.627,
   0FDB C1 25         [ 2] 1946 	cmpb	#37	;cmpqi:	; c.627,
   0FDD 27 08         [ 3] 1947 	beq	L364	;
   0FDF                    1948 L371:
   0FDF E7 80         [ 6] 1949 	stb	,x+	; c.627,
   0FE1 E6 A0         [ 6] 1950 	ldb	,y+	; c.627,
   0FE3 C1 25         [ 2] 1951 	cmpb	#37	;cmpqi:	; c.627,
   0FE5 26 F8         [ 3] 1952 	bne	L371	;
   0FE7                    1953 L364:
   0FE7 EE 6D         [ 6] 1954 	ldu	13,s	;, s2
   0FE9 E6 C4         [ 4] 1955 	ldb	,u	; c.626,
   0FEB 27 12         [ 3] 1956 	beq	L366	;
   0FED 33 41         [ 5] 1957 	leau	1,u	;,,
   0FEF EF E4         [ 5] 1958 	stu	,s	;, s2.624
   0FF1                    1959 L367:
   0FF1 E7 80         [ 6] 1960 	stb	,x+	; c.626,
   0FF3 EE E4         [ 5] 1961 	ldu	,s	;, s2.624
   0FF5 33 41         [ 5] 1962 	leau	1,u	;,,
   0FF7 EF E4         [ 5] 1963 	stu	,s	;, s2.624
   0FF9 33 5F         [ 5] 1964 	leau	-1,u	;,,
   0FFB E6 C0         [ 6] 1965 	ldb	,u+	; c.626,
   0FFD 26 F2         [ 3] 1966 	bne	L367	;
   0FFF                    1967 L366:
   0FFF E6 A4         [ 4] 1968 	ldb	,y	; c,* s1.628
   1001 27 08         [ 3] 1969 	beq	L368	;
   1003 33 21         [ 5] 1970 	leau	1,y	; s1.623,, s1.628
   1005                    1971 L369:
   1005 E7 80         [ 6] 1972 	stb	,x+	; c,
   1007 E6 C0         [ 6] 1973 	ldb	,u+	; c,
   1009 26 FA         [ 3] 1974 	bne	L369	;
   100B                    1975 L368:
   100B C6 80         [ 2] 1976 	ldb	#-128	;,
   100D E7 84         [ 4] 1977 	stb	,x	;,* to.622
   100F 32 67         [ 5] 1978 	leas	7,s	;,,
   1011 35 E0         [ 8] 1979 	puls	y,u,pc	;
                           1980 	.globl	__fsi_s
   1013                    1981 __fsi_s:
   1013 34 60         [ 7] 1982 	pshs	y,u	;
   1015 32 79         [ 5] 1983 	leas	-7,s	;,,
   1017 AF 62         [ 6] 1984 	stx	2,s	; s1, s1
   1019 BD 00 5A      [ 8] 1985 	jsr	_itoa
   101C 8E 00 00      [ 3] 1986 	ldx	#_stringBuffer4	;,
   101F BD 00 3A      [ 8] 1987 	jsr	_removeSpaces
   1022 AE 62         [ 6] 1988 	ldx	2,s	;, s1
   1024 30 01         [ 5] 1989 	leax	1,x	;,,
   1026 AF E4         [ 5] 1990 	stx	,s	;, s1.685
   1028 30 1F         [ 5] 1991 	leax	-1,x	;,,
   102A E6 80         [ 6] 1992 	ldb	,x+	;,
   102C E7 66         [ 5] 1993 	stb	6,s	;, c.684
   102E 10 8E 00 00   [ 4] 1994 	ldy	#_stringBuffer40	; to.678,
   1032 C1 25         [ 2] 1995 	cmpb	#37	;cmpqi:	;,
   1034 27 2E         [ 3] 1996 	beq	L378	;
   1036 CE 00 00      [ 3] 1997 	ldu	#0	; ivtmp.671,
   1039 20 02         [ 3] 1998 	bra	L379	;
   103B                    1999 L393:
   103B EE 64         [ 6] 2000 	ldu	4,s	; ivtmp.671, ivtmp.681
   103D                    2001 L379:
   103D E6 66         [ 5] 2002 	ldb	6,s	;, c.684
   103F E7 C9 00 00   [ 8] 2003 	stb	_stringBuffer40,u	;,
   1043 30 41         [ 5] 2004 	leax	1,u	;,, ivtmp.671
   1045 AF 64         [ 6] 2005 	stx	4,s	;, ivtmp.681
   1047 31 89 00 00   [ 8] 2006 	leay	_stringBuffer40,x	; to.678,,
   104B EC 62         [ 6] 2007 	ldd	2,s	;, s1
   104D 30 CB         [ 8] 2008 	leax	d,u	; tmp45,, ivtmp.671
   104F E6 01         [ 5] 2009 	ldb	1,x	;,
   1051 E7 66         [ 5] 2010 	stb	6,s	;, c.684
   1053 1F 30         [ 6] 2011 	tfr	u,d	; ivtmp.671, tmp46
   1055 C3 00 02      [ 4] 2012 	addd	#2; addhi3,3	; tmp46,
   1058 AE 62         [ 6] 2013 	ldx	2,s	;, s1
   105A 30 8B         [ 8] 2014 	leax	d,x	;, tmp46,
   105C AF E4         [ 5] 2015 	stx	,s	;, s1.685
   105E E6 66         [ 5] 2016 	ldb	6,s	;, c.684
   1060 C1 25         [ 2] 2017 	cmpb	#37	;cmpqi:	;,
   1062 26 D7         [ 3] 2018 	bne	L393	;
   1064                    2019 L378:
   1064 AE 6D         [ 6] 2020 	ldx	13,s	;, s2
   1066 E6 84         [ 4] 2021 	ldb	,x	; c.682,
   1068 27 08         [ 3] 2022 	beq	L380	;
   106A 30 01         [ 5] 2023 	leax	1,x	; s2.683,,
   106C                    2024 L381:
   106C E7 A0         [ 6] 2025 	stb	,y+	; c.682,
   106E E6 80         [ 6] 2026 	ldb	,x+	; c.682,
   1070 26 FA         [ 3] 2027 	bne	L381	;
   1072                    2028 L380:
   1072 AE E4         [ 5] 2029 	ldx	,s	; s1.679, s1.685
   1074 E6 80         [ 6] 2030 	ldb	,x+	; c.680,
   1076 C1 25         [ 2] 2031 	cmpb	#37	;cmpqi:	; c.680,
   1078 27 08         [ 3] 2032 	beq	L382	;
   107A                    2033 L389:
   107A E7 A0         [ 6] 2034 	stb	,y+	; c.680,
   107C E6 80         [ 6] 2035 	ldb	,x+	; c.680,
   107E C1 25         [ 2] 2036 	cmpb	#37	;cmpqi:	; c.680,
   1080 26 F8         [ 3] 2037 	bne	L389	;
   1082                    2038 L382:
   1082 33 A4         [ 4] 2039 	leau	,y	; to, to.678
   1084 F6 00 00      [ 5] 2040 	ldb	_stringBuffer4	;, stringBuffer4
   1087 E7 C0         [ 6] 2041 	stb	,u+	;,
   1089 F6 00 01      [ 5] 2042 	ldb	_stringBuffer4+1	; D.3337, stringBuffer4
   108C 27 02         [ 3] 2043 	beq	L384	;
   108E E7 C0         [ 6] 2044 	stb	,u+	; D.3337,
   1090                    2045 L384:
   1090 F6 00 02      [ 5] 2046 	ldb	_stringBuffer4+2	; D.3339, stringBuffer4
   1093 27 02         [ 3] 2047 	beq	L385	;
   1095 E7 C0         [ 6] 2048 	stb	,u+	; D.3339,
   1097                    2049 L385:
   1097 E6 84         [ 4] 2050 	ldb	,x	; c,* s1.679
   1099 27 08         [ 3] 2051 	beq	L386	;
   109B 30 01         [ 5] 2052 	leax	1,x	; s1.677,, s1.679
   109D                    2053 L387:
   109D E7 C0         [ 6] 2054 	stb	,u+	; c,
   109F E6 80         [ 6] 2055 	ldb	,x+	; c,
   10A1 26 FA         [ 3] 2056 	bne	L387	;
   10A3                    2057 L386:
   10A3 C6 80         [ 2] 2058 	ldb	#-128	;,
   10A5 E7 C4         [ 4] 2059 	stb	,u	;,* to
   10A7 32 67         [ 5] 2060 	leas	7,s	;,,
   10A9 35 E0         [ 8] 2061 	puls	y,u,pc	;
                           2062 	.globl	__fsi2
   10AB                    2063 __fsi2:
   10AB 34 60         [ 7] 2064 	pshs	y,u	;
   10AD 32 76         [ 5] 2065 	leas	-10,s	;,,
   10AF AF 61         [ 6] 2066 	stx	1,s	; s1, s1
   10B1 BD 00 5A      [ 8] 2067 	jsr	_itoa
   10B4 AE 61         [ 6] 2068 	ldx	1,s	;, s1
   10B6 30 01         [ 5] 2069 	leax	1,x	;,,
   10B8 AF 68         [ 6] 2070 	stx	8,s	;, s1.742
   10BA 30 1F         [ 5] 2071 	leax	-1,x	;,,
   10BC E6 80         [ 6] 2072 	ldb	,x+	;,
   10BE E7 67         [ 5] 2073 	stb	7,s	;, c.741
   10C0 8E 00 00      [ 3] 2074 	ldx	#_stringBuffer40	;,
   10C3 AF 63         [ 6] 2075 	stx	3,s	;, to.734
   10C5 C1 25         [ 2] 2076 	cmpb	#37	;cmpqi:	;,
   10C7 27 2C         [ 3] 2077 	beq	L396	;
   10C9 CE 00 00      [ 3] 2078 	ldu	#0	; ivtmp.740,
   10CC 20 02         [ 3] 2079 	bra	L397	;
   10CE                    2080 L408:
   10CE 33 A4         [ 4] 2081 	leau	,y	; ivtmp.740, ivtmp.726
   10D0                    2082 L397:
   10D0 E6 67         [ 5] 2083 	ldb	7,s	;, c.741
   10D2 E7 C9 00 00   [ 8] 2084 	stb	_stringBuffer40,u	;,
   10D6 31 41         [ 5] 2085 	leay	1,u	; ivtmp.726,, ivtmp.740
   10D8 30 A9 00 00   [ 8] 2086 	leax	_stringBuffer40,y	;,, ivtmp.726
   10DC AF 63         [ 6] 2087 	stx	3,s	;, to.734
   10DE EC 61         [ 6] 2088 	ldd	1,s	;, s1
   10E0 30 CB         [ 8] 2089 	leax	d,u	; tmp46,, ivtmp.740
   10E2 E6 01         [ 5] 2090 	ldb	1,x	;,
   10E4 E7 67         [ 5] 2091 	stb	7,s	;, c.741
   10E6 1F 30         [ 6] 2092 	tfr	u,d	; ivtmp.740, tmp47
   10E8 C3 00 02      [ 4] 2093 	addd	#2; addhi3,3	; tmp47,
   10EB E3 61         [ 7] 2094 	addd	1,s; addhi3,3	; tmp47, s1
   10ED ED 68         [ 6] 2095 	std	8,s	; tmp47, s1.742
   10EF E6 67         [ 5] 2096 	ldb	7,s	;, c.741
   10F1 C1 25         [ 2] 2097 	cmpb	#37	;cmpqi:	;,
   10F3 26 D9         [ 3] 2098 	bne	L408	;
   10F5                    2099 L396:
   10F5 AE 63         [ 6] 2100 	ldx	3,s	; to, to.734
   10F7 F6 00 00      [ 5] 2101 	ldb	_stringBuffer4	;, stringBuffer4
   10FA E7 80         [ 6] 2102 	stb	,x+	;,
   10FC F6 00 01      [ 5] 2103 	ldb	_stringBuffer4+1	;, stringBuffer4
   10FF E7 80         [ 6] 2104 	stb	,x+	;,
   1101 31 84         [ 4] 2105 	leay	,x	; to.733, to.732
   1103 F6 00 02      [ 5] 2106 	ldb	_stringBuffer4+2	;, stringBuffer4
   1106 E7 A0         [ 6] 2107 	stb	,y+	;,
   1108 AE 68         [ 6] 2108 	ldx	8,s	;, s1.742
   110A 30 01         [ 5] 2109 	leax	1,x	;,,
   110C AF 65         [ 6] 2110 	stx	5,s	;, s1.739
   110E 30 1F         [ 5] 2111 	leax	-1,x	;,,
   1110 E6 80         [ 6] 2112 	ldb	,x+	;,
   1112 E7 E4         [ 4] 2113 	stb	,s	;, c.738
   1114 C1 25         [ 2] 2114 	cmpb	#37	;cmpqi:	;,
   1116 27 29         [ 3] 2115 	beq	L398	;
   1118 CE 00 00      [ 3] 2116 	ldu	#0	; ivtmp.718,
   111B                    2117 L399:
   111B EC 63         [ 6] 2118 	ldd	3,s	;, to.734
   111D 30 CB         [ 8] 2119 	leax	d,u	; tmp51,, ivtmp.718
   111F E6 E4         [ 4] 2120 	ldb	,s	;, c.738
   1121 E7 03         [ 5] 2121 	stb	3,x	;,
   1123 30 44         [ 5] 2122 	leax	4,u	; tmp52,, ivtmp.718
   1125 EC 63         [ 6] 2123 	ldd	3,s	;, to.734
   1127 31 8B         [ 8] 2124 	leay	d,x	; to.733,, tmp52
   1129 EC 68         [ 6] 2125 	ldd	8,s	;, s1.742
   112B 30 CB         [ 8] 2126 	leax	d,u	; tmp53,, ivtmp.718
   112D E6 01         [ 5] 2127 	ldb	1,x	;,
   112F E7 E4         [ 4] 2128 	stb	,s	;, c.738
   1131 30 42         [ 5] 2129 	leax	2,u	; tmp54,, ivtmp.718
   1133 1E 01         [ 8] 2130 	exg	d,x	;, tmp54
   1135 E3 68         [ 7] 2131 	addd	8,s; addhi3,3	;, s1.742
   1137 1E 01         [ 8] 2132 	exg	d,x	;, tmp54
   1139 AF 65         [ 6] 2133 	stx	5,s	; tmp54, s1.739
   113B 33 41         [ 5] 2134 	leau	1,u	; ivtmp.718,, ivtmp.718
   113D C1 25         [ 2] 2135 	cmpb	#37	;cmpqi:	;,
   113F 26 DA         [ 3] 2136 	bne	L399	;
   1141                    2137 L398:
   1141 AE E8 10      [ 6] 2138 	ldx	16,s	;, s2
   1144 E6 84         [ 4] 2139 	ldb	,x	; c.736,
   1146 27 08         [ 3] 2140 	beq	L400	;
   1148 30 01         [ 5] 2141 	leax	1,x	; s2.735,,
   114A                    2142 L401:
   114A E7 A0         [ 6] 2143 	stb	,y+	; c.736,
   114C E6 80         [ 6] 2144 	ldb	,x+	; c.736,
   114E 26 FA         [ 3] 2145 	bne	L401	;
   1150                    2146 L400:
   1150 EE 65         [ 6] 2147 	ldu	5,s	;, s1.739
   1152 E6 C4         [ 4] 2148 	ldb	,u	; c,
   1154 27 08         [ 3] 2149 	beq	L402	;
   1156 30 41         [ 5] 2150 	leax	1,u	; s1.737,,
   1158                    2151 L403:
   1158 E7 A0         [ 6] 2152 	stb	,y+	; c,
   115A E6 80         [ 6] 2153 	ldb	,x+	; c,
   115C 26 FA         [ 3] 2154 	bne	L403	;
   115E                    2155 L402:
   115E C6 80         [ 2] 2156 	ldb	#-128	;,
   1160 E7 A4         [ 4] 2157 	stb	,y	;,* to.733
   1162 32 6A         [ 5] 2158 	leas	10,s	;,,
   1164 35 E0         [ 8] 2159 	puls	y,u,pc	;
                           2160 	.globl	__fsi
   1166                    2161 __fsi:
   1166 34 60         [ 7] 2162 	pshs	y,u	;
   1168 32 74         [ 5] 2163 	leas	-12,s	;,,
   116A AF 63         [ 6] 2164 	stx	3,s	; s1, s1
   116C BD 00 5A      [ 8] 2165 	jsr	_itoa
   116F AE 63         [ 6] 2166 	ldx	3,s	;, s1
   1171 30 01         [ 5] 2167 	leax	1,x	;,,
   1173 AF 61         [ 6] 2168 	stx	1,s	;, s1.798
   1175 30 1F         [ 5] 2169 	leax	-1,x	;,,
   1177 E6 80         [ 6] 2170 	ldb	,x+	;,
   1179 E7 6B         [ 5] 2171 	stb	11,s	;, c.797
   117B 10 8E 00 00   [ 4] 2172 	ldy	#_stringBuffer40	; to.790,
   117F C1 25         [ 2] 2173 	cmpb	#37	;cmpqi:	;,
   1181 27 2E         [ 3] 2174 	beq	L411	;
   1183 CE 00 00      [ 3] 2175 	ldu	#0	; ivtmp.794,
   1186 20 02         [ 3] 2176 	bra	L412	;
   1188                    2177 L424:
   1188 EE 65         [ 6] 2178 	ldu	5,s	; ivtmp.794, ivtmp.783
   118A                    2179 L412:
   118A E6 6B         [ 5] 2180 	ldb	11,s	;, c.797
   118C E7 C9 00 00   [ 8] 2181 	stb	_stringBuffer40,u	;,
   1190 30 41         [ 5] 2182 	leax	1,u	;,, ivtmp.794
   1192 AF 65         [ 6] 2183 	stx	5,s	;, ivtmp.783
   1194 31 89 00 00   [ 8] 2184 	leay	_stringBuffer40,x	; to.790,,
   1198 EC 63         [ 6] 2185 	ldd	3,s	;, s1
   119A 30 CB         [ 8] 2186 	leax	d,u	; tmp45,, ivtmp.794
   119C E6 01         [ 5] 2187 	ldb	1,x	;,
   119E E7 6B         [ 5] 2188 	stb	11,s	;, c.797
   11A0 1F 30         [ 6] 2189 	tfr	u,d	; ivtmp.794, tmp46
   11A2 C3 00 02      [ 4] 2190 	addd	#2; addhi3,3	; tmp46,
   11A5 AE 63         [ 6] 2191 	ldx	3,s	;, s1
   11A7 30 8B         [ 8] 2192 	leax	d,x	;, tmp46,
   11A9 AF 61         [ 6] 2193 	stx	1,s	;, s1.798
   11AB E6 6B         [ 5] 2194 	ldb	11,s	;, c.797
   11AD C1 25         [ 2] 2195 	cmpb	#37	;cmpqi:	;,
   11AF 26 D7         [ 3] 2196 	bne	L424	;
   11B1                    2197 L411:
   11B1 AE E8 12      [ 6] 2198 	ldx	18,s	;, s2
   11B4 E6 84         [ 4] 2199 	ldb	,x	; c.795,
   11B6 27 08         [ 3] 2200 	beq	L413	;
   11B8 33 01         [ 5] 2201 	leau	1,x	; s2.796,,
   11BA                    2202 L414:
   11BA E7 A0         [ 6] 2203 	stb	,y+	; c.795,
   11BC E6 C0         [ 6] 2204 	ldb	,u+	; c.795,
   11BE 26 FA         [ 3] 2205 	bne	L414	;
   11C0                    2206 L413:
   11C0 EE 61         [ 6] 2207 	ldu	1,s	;, s1.798
   11C2 33 41         [ 5] 2208 	leau	1,u	;,,
   11C4 EF 69         [ 6] 2209 	stu	9,s	;, s1.792
   11C6 33 5F         [ 5] 2210 	leau	-1,u	;,,
   11C8 E6 C0         [ 6] 2211 	ldb	,u+	; c.793,
   11CA C1 25         [ 2] 2212 	cmpb	#37	;cmpqi:	; c.793,
   11CC 27 10         [ 3] 2213 	beq	L415	;
   11CE                    2214 L420:
   11CE E7 A0         [ 6] 2215 	stb	,y+	; c.793,
   11D0 AE 69         [ 6] 2216 	ldx	9,s	;, s1.792
   11D2 30 01         [ 5] 2217 	leax	1,x	;,,
   11D4 AF 69         [ 6] 2218 	stx	9,s	;, s1.792
   11D6 30 1F         [ 5] 2219 	leax	-1,x	;,,
   11D8 E6 80         [ 6] 2220 	ldb	,x+	; c.793,
   11DA C1 25         [ 2] 2221 	cmpb	#37	;cmpqi:	; c.793,
   11DC 26 F0         [ 3] 2222 	bne	L420	;
   11DE                    2223 L415:
   11DE 30 A4         [ 4] 2224 	leax	,y	; to, to.790
   11E0 F6 00 00      [ 5] 2225 	ldb	_stringBuffer4	;, stringBuffer4
   11E3 E7 80         [ 6] 2226 	stb	,x+	;,
   11E5 F6 00 01      [ 5] 2227 	ldb	_stringBuffer4+1	;, stringBuffer4
   11E8 E7 80         [ 6] 2228 	stb	,x+	;,
   11EA F6 00 02      [ 5] 2229 	ldb	_stringBuffer4+2	;, stringBuffer4
   11ED 30 01         [ 5] 2230 	leax	1,x	; to.789,, to.789
   11EF AF 67         [ 6] 2231 	stx	7,s	; to.789, to.791
   11F1 30 1F         [ 5] 2232 	leax	-1,x	; to.789,, to.789
   11F3 E7 80         [ 6] 2233 	stb	,x+	;,
   11F5 AE 69         [ 6] 2234 	ldx	9,s	;, s1.792
   11F7 E6 84         [ 4] 2235 	ldb	,x	;,
   11F9 E7 E4         [ 4] 2236 	stb	,s	;, c
   11FB 27 20         [ 3] 2237 	beq	L417	;
   11FD CE 00 00      [ 3] 2238 	ldu	#0	; ivtmp.761,
   1200                    2239 L418:
   1200 1F 20         [ 6] 2240 	tfr	y,d	; to.790,
   1202 30 CB         [ 8] 2241 	leax	d,u	; tmp50,, ivtmp.761
   1204 E6 E4         [ 4] 2242 	ldb	,s	;, c
   1206 E7 03         [ 5] 2243 	stb	3,x	;,
   1208 30 44         [ 5] 2244 	leax	4,u	; tmp51,, ivtmp.761
   120A 1F 20         [ 6] 2245 	tfr	y,d	; to.790,
   120C 30 8B         [ 8] 2246 	leax	d,x	;,, tmp51
   120E AF 67         [ 6] 2247 	stx	7,s	;, to.791
   1210 EC 69         [ 6] 2248 	ldd	9,s	;, s1.792
   1212 30 CB         [ 8] 2249 	leax	d,u	; tmp52,, ivtmp.761
   1214 E6 01         [ 5] 2250 	ldb	1,x	;,
   1216 E7 E4         [ 4] 2251 	stb	,s	;, c
   1218 33 41         [ 5] 2252 	leau	1,u	; ivtmp.761,, ivtmp.761
   121A 5D            [ 2] 2253 	tstb	;
   121B 26 E3         [ 3] 2254 	bne	L418	;
   121D                    2255 L417:
   121D C6 80         [ 2] 2256 	ldb	#-128	;,
   121F AE 67         [ 6] 2257 	ldx	7,s	;, to.791
   1221 E7 84         [ 4] 2258 	stb	,x	;,
   1223 32 6C         [ 5] 2259 	leas	12,s	;,,
   1225 35 E0         [ 8] 2260 	puls	y,u,pc	;
                           2261 	.globl	__fii
   1227                    2262 __fii:
   1227 34 60         [ 7] 2263 	pshs	y,u	;
   1229 32 74         [ 5] 2264 	leas	-12,s	;,,
   122B AF 61         [ 6] 2265 	stx	1,s	; s1, s1
   122D BD 00 5A      [ 8] 2266 	jsr	_itoa
   1230 AE 61         [ 6] 2267 	ldx	1,s	;, s1
   1232 30 01         [ 5] 2268 	leax	1,x	;,,
   1234 AF 6A         [ 6] 2269 	stx	10,s	;, s1.852
   1236 30 1F         [ 5] 2270 	leax	-1,x	;,,
   1238 E6 80         [ 6] 2271 	ldb	,x+	;,
   123A E7 69         [ 5] 2272 	stb	9,s	;, c.851
   123C 8E 00 00      [ 3] 2273 	ldx	#_stringBuffer40	;,
   123F AF 65         [ 6] 2274 	stx	5,s	;, to.847
   1241 C1 25         [ 2] 2275 	cmpb	#37	;cmpqi:	;,
   1243 27 2C         [ 3] 2276 	beq	L427	;
   1245 CE 00 00      [ 3] 2277 	ldu	#0	; ivtmp.833,
   1248 20 02         [ 3] 2278 	bra	L428	;
   124A                    2279 L436:
   124A 33 A4         [ 4] 2280 	leau	,y	; ivtmp.833, ivtmp.850
   124C                    2281 L428:
   124C E6 69         [ 5] 2282 	ldb	9,s	;, c.851
   124E E7 C9 00 00   [ 8] 2283 	stb	_stringBuffer40,u	;,
   1252 31 41         [ 5] 2284 	leay	1,u	; ivtmp.850,, ivtmp.833
   1254 30 A9 00 00   [ 8] 2285 	leax	_stringBuffer40,y	;,, ivtmp.850
   1258 AF 65         [ 6] 2286 	stx	5,s	;, to.847
   125A EC 61         [ 6] 2287 	ldd	1,s	;, s1
   125C 30 CB         [ 8] 2288 	leax	d,u	; tmp47,, ivtmp.833
   125E E6 01         [ 5] 2289 	ldb	1,x	;,
   1260 E7 69         [ 5] 2290 	stb	9,s	;, c.851
   1262 1F 30         [ 6] 2291 	tfr	u,d	; ivtmp.833, tmp48
   1264 C3 00 02      [ 4] 2292 	addd	#2; addhi3,3	; tmp48,
   1267 E3 61         [ 7] 2293 	addd	1,s; addhi3,3	; tmp48, s1
   1269 ED 6A         [ 6] 2294 	std	10,s	; tmp48, s1.852
   126B E6 69         [ 5] 2295 	ldb	9,s	;, c.851
   126D C1 25         [ 2] 2296 	cmpb	#37	;cmpqi:	;,
   126F 26 D9         [ 3] 2297 	bne	L436	;
   1271                    2298 L427:
   1271 AE 65         [ 6] 2299 	ldx	5,s	; to, to.847
   1273 F6 00 00      [ 5] 2300 	ldb	_stringBuffer4	;, stringBuffer4
   1276 E7 80         [ 6] 2301 	stb	,x+	;,
   1278 F6 00 01      [ 5] 2302 	ldb	_stringBuffer4+1	;, stringBuffer4
   127B E7 80         [ 6] 2303 	stb	,x+	;,
   127D F6 00 02      [ 5] 2304 	ldb	_stringBuffer4+2	;, stringBuffer4
   1280 30 01         [ 5] 2305 	leax	1,x	; to.839,, to.839
   1282 AF 63         [ 6] 2306 	stx	3,s	; to.839, to.840
   1284 30 1F         [ 5] 2307 	leax	-1,x	; to.839,, to.839
   1286 E7 80         [ 6] 2308 	stb	,x+	;,
   1288 E6 E8 12      [ 5] 2309 	ldb	18,s	;, i2
   128B BD 00 5A      [ 8] 2310 	jsr	_itoa
   128E AE 6A         [ 6] 2311 	ldx	10,s	;, s1.852
   1290 30 01         [ 5] 2312 	leax	1,x	;,,
   1292 AF 67         [ 6] 2313 	stx	7,s	;, s1.848
   1294 30 1F         [ 5] 2314 	leax	-1,x	;,,
   1296 E6 80         [ 6] 2315 	ldb	,x+	;,
   1298 E7 E4         [ 4] 2316 	stb	,s	;, c.849
   129A C1 25         [ 2] 2317 	cmpb	#37	;cmpqi:	;,
   129C 27 2D         [ 3] 2318 	beq	L429	;
   129E CE 00 00      [ 3] 2319 	ldu	#0	; ivtmp.825,
   12A1                    2320 L430:
   12A1 EC 65         [ 6] 2321 	ldd	5,s	;, to.847
   12A3 30 CB         [ 8] 2322 	leax	d,u	; tmp52,, ivtmp.825
   12A5 E6 E4         [ 4] 2323 	ldb	,s	;, c.849
   12A7 E7 03         [ 5] 2324 	stb	3,x	;,
   12A9 30 44         [ 5] 2325 	leax	4,u	; tmp53,, ivtmp.825
   12AB 1E 01         [ 8] 2326 	exg	d,x	;, tmp53
   12AD E3 65         [ 7] 2327 	addd	5,s; addhi3,3	;, to.847
   12AF 1E 01         [ 8] 2328 	exg	d,x	;, tmp53
   12B1 AF 63         [ 6] 2329 	stx	3,s	; tmp53, to.840
   12B3 EC 6A         [ 6] 2330 	ldd	10,s	;, s1.852
   12B5 30 CB         [ 8] 2331 	leax	d,u	; tmp54,, ivtmp.825
   12B7 E6 01         [ 5] 2332 	ldb	1,x	;,
   12B9 E7 E4         [ 4] 2333 	stb	,s	;, c.849
   12BB 30 42         [ 5] 2334 	leax	2,u	; tmp55,, ivtmp.825
   12BD 1E 01         [ 8] 2335 	exg	d,x	;, tmp55
   12BF E3 6A         [ 7] 2336 	addd	10,s; addhi3,3	;, s1.852
   12C1 1E 01         [ 8] 2337 	exg	d,x	;, tmp55
   12C3 AF 67         [ 6] 2338 	stx	7,s	; tmp55, s1.848
   12C5 33 41         [ 5] 2339 	leau	1,u	; ivtmp.825,, ivtmp.825
   12C7 C1 25         [ 2] 2340 	cmpb	#37	;cmpqi:	;,
   12C9 26 D6         [ 3] 2341 	bne	L430	;
   12CB                    2342 L429:
   12CB AE 63         [ 6] 2343 	ldx	3,s	; to.842, to.840
   12CD F6 00 00      [ 5] 2344 	ldb	_stringBuffer4	;, stringBuffer4
   12D0 E7 80         [ 6] 2345 	stb	,x+	;,
   12D2 F6 00 01      [ 5] 2346 	ldb	_stringBuffer4+1	;, stringBuffer4
   12D5 E7 80         [ 6] 2347 	stb	,x+	;,
   12D7 31 84         [ 4] 2348 	leay	,x	; to.846, to.844
   12D9 F6 00 02      [ 5] 2349 	ldb	_stringBuffer4+2	;, stringBuffer4
   12DC E7 A0         [ 6] 2350 	stb	,y+	;,
   12DE AE 67         [ 6] 2351 	ldx	7,s	;, s1.848
   12E0 E6 84         [ 4] 2352 	ldb	,x	;,
   12E2 E7 E4         [ 4] 2353 	stb	,s	;, c
   12E4 27 1E         [ 3] 2354 	beq	L431	;
   12E6 CE 00 00      [ 3] 2355 	ldu	#0	; ivtmp.817,
   12E9                    2356 L432:
   12E9 EC 63         [ 6] 2357 	ldd	3,s	;, to.840
   12EB 30 CB         [ 8] 2358 	leax	d,u	; tmp59,, ivtmp.817
   12ED E6 E4         [ 4] 2359 	ldb	,s	;, c
   12EF E7 03         [ 5] 2360 	stb	3,x	;,
   12F1 30 44         [ 5] 2361 	leax	4,u	; tmp60,, ivtmp.817
   12F3 EC 63         [ 6] 2362 	ldd	3,s	;, to.840
   12F5 31 8B         [ 8] 2363 	leay	d,x	; to.846,, tmp60
   12F7 EC 67         [ 6] 2364 	ldd	7,s	;, s1.848
   12F9 30 CB         [ 8] 2365 	leax	d,u	; tmp61,, ivtmp.817
   12FB E6 01         [ 5] 2366 	ldb	1,x	;,
   12FD E7 E4         [ 4] 2367 	stb	,s	;, c
   12FF 33 41         [ 5] 2368 	leau	1,u	; ivtmp.817,, ivtmp.817
   1301 5D            [ 2] 2369 	tstb	;
   1302 26 E5         [ 3] 2370 	bne	L432	;
   1304                    2371 L431:
   1304 C6 80         [ 2] 2372 	ldb	#-128	;,
   1306 E7 A4         [ 4] 2373 	stb	,y	;,* to.846
   1308 32 6C         [ 5] 2374 	leas	12,s	;,,
   130A 35 E0         [ 8] 2375 	puls	y,u,pc	;
                           2376 	.globl	__fl
   130C                    2377 __fl:
   130C 34 60         [ 7] 2378 	pshs	y,u	;
   130E 32 7B         [ 5] 2379 	leas	-5,s	;,,
   1310 AF E4         [ 5] 2380 	stx	,s	; s1, s1
   1312 8E 00 00      [ 3] 2381 	ldx	#_stringBuffer6	;,
   1315 AF E3         [ 8] 2382 	stx	,--s	;,
   1317 C6 01         [ 2] 2383 	ldb	#1	;,
   1319 AE 6D         [ 6] 2384 	ldx	13,s	;, i
   131B BD 01 E0      [ 8] 2385 	jsr	__ltoa
   131E EE 62         [ 6] 2386 	ldu	2,s	; s1.894, s1
   1320 E6 C0         [ 6] 2387 	ldb	,u+	;,
   1322 E7 66         [ 5] 2388 	stb	6,s	;, c.893
   1324 32 62         [ 5] 2389 	leas	2,s	;,,
   1326 10 8E 00 00   [ 4] 2390 	ldy	#_stringBuffer40	; to,
   132A C1 25         [ 2] 2391 	cmpb	#37	;cmpqi:	;,
   132C 27 2C         [ 3] 2392 	beq	L439	;
   132E CE 00 00      [ 3] 2393 	ldu	#0	; ivtmp.892,
   1331 20 02         [ 3] 2394 	bra	L440	;
   1333                    2395 L448:
   1333 EE 62         [ 6] 2396 	ldu	2,s	; ivtmp.892, ivtmp.884
   1335                    2397 L440:
   1335 E6 64         [ 5] 2398 	ldb	4,s	;, c.893
   1337 E7 C9 00 00   [ 8] 2399 	stb	_stringBuffer40,u	;,
   133B 30 41         [ 5] 2400 	leax	1,u	;,, ivtmp.892
   133D AF 62         [ 6] 2401 	stx	2,s	;, ivtmp.884
   133F 31 89 00 00   [ 8] 2402 	leay	_stringBuffer40,x	; to,,
   1343 EC E4         [ 5] 2403 	ldd	,s	;, s1
   1345 30 CB         [ 8] 2404 	leax	d,u	; tmp40,, ivtmp.892
   1347 E6 01         [ 5] 2405 	ldb	1,x	;,
   1349 E7 64         [ 5] 2406 	stb	4,s	;, c.893
   134B 1F 30         [ 6] 2407 	tfr	u,d	; ivtmp.892, tmp41
   134D C3 00 02      [ 4] 2408 	addd	#2; addhi3,3	; tmp41,
   1350 AE E4         [ 5] 2409 	ldx	,s	;, s1
   1352 33 8B         [ 8] 2410 	leau	d,x	; s1.894, tmp41,
   1354 E6 64         [ 5] 2411 	ldb	4,s	;, c.893
   1356 C1 25         [ 2] 2412 	cmpb	#37	;cmpqi:	;,
   1358 26 D9         [ 3] 2413 	bne	L448	;
   135A                    2414 L439:
   135A F6 00 00      [ 5] 2415 	ldb	_stringBuffer6	; c.891, stringBuffer6
   135D 27 09         [ 3] 2416 	beq	L441	;
   135F 8E 00 01      [ 3] 2417 	ldx	#_stringBuffer6+1	; s2,
   1362                    2418 L442:
   1362 E7 A0         [ 6] 2419 	stb	,y+	; c.891,
   1364 E6 80         [ 6] 2420 	ldb	,x+	; c.891,
   1366 26 FA         [ 3] 2421 	bne	L442	;
   1368                    2422 L441:
   1368 E6 C4         [ 4] 2423 	ldb	,u	; c,* s1.894
   136A 27 08         [ 3] 2424 	beq	L443	;
   136C 30 41         [ 5] 2425 	leax	1,u	; s1.890,, s1.894
   136E                    2426 L444:
   136E E7 A0         [ 6] 2427 	stb	,y+	; c,
   1370 E6 80         [ 6] 2428 	ldb	,x+	; c,
   1372 26 FA         [ 3] 2429 	bne	L444	;
   1374                    2430 L443:
   1374 C6 80         [ 2] 2431 	ldb	#-128	;,
   1376 E7 A4         [ 4] 2432 	stb	,y	;,* to
   1378 32 65         [ 5] 2433 	leas	5,s	;,,
   137A 35 E0         [ 8] 2434 	puls	y,u,pc	;
                           2435 	.globl	__fsl_s
   137C                    2436 __fsl_s:
   137C 34 60         [ 7] 2437 	pshs	y,u	;
   137E 32 79         [ 5] 2438 	leas	-7,s	;,,
   1380 AF 62         [ 6] 2439 	stx	2,s	; s1, s1
   1382 10 8E 00 00   [ 4] 2440 	ldy	#_stringBuffer6	; tmp47,
   1386 34 20         [ 6] 2441 	pshs	y	; tmp47
   1388 C6 01         [ 2] 2442 	ldb	#1	;,
   138A AE E8 11      [ 6] 2443 	ldx	17,s	;, i
   138D BD 01 E0      [ 8] 2444 	jsr	__ltoa
   1390 30 A4         [ 4] 2445 	leax	,y	;, tmp47
   1392 BD 00 3A      [ 8] 2446 	jsr	_removeSpaces
   1395 AE 64         [ 6] 2447 	ldx	4,s	;, s1
   1397 30 01         [ 5] 2448 	leax	1,x	;,,
   1399 AF 62         [ 6] 2449 	stx	2,s	;, s1.945
   139B 30 1F         [ 5] 2450 	leax	-1,x	;,,
   139D E6 80         [ 6] 2451 	ldb	,x+	;,
   139F E7 68         [ 5] 2452 	stb	8,s	;, c.944
   13A1 32 62         [ 5] 2453 	leas	2,s	;,,
   13A3 CE 00 00      [ 3] 2454 	ldu	#_stringBuffer40	; to.938,
   13A6 C1 25         [ 2] 2455 	cmpb	#37	;cmpqi:	;,
   13A8 27 30         [ 3] 2456 	beq	L451	;
   13AA 10 8E 00 00   [ 4] 2457 	ldy	#0	; ivtmp.939,
   13AE 20 03         [ 3] 2458 	bra	L452	;
   13B0                    2459 L469:
   13B0 10 AE 64      [ 7] 2460 	ldy	4,s	; ivtmp.939, ivtmp.931
   13B3                    2461 L452:
   13B3 E6 66         [ 5] 2462 	ldb	6,s	;, c.944
   13B5 E7 A9 00 00   [ 8] 2463 	stb	_stringBuffer40,y	;,
   13B9 30 21         [ 5] 2464 	leax	1,y	;,, ivtmp.939
   13BB AF 64         [ 6] 2465 	stx	4,s	;, ivtmp.931
   13BD 33 89 00 00   [ 8] 2466 	leau	_stringBuffer40,x	; to.938,,
   13C1 EC 62         [ 6] 2467 	ldd	2,s	;, s1
   13C3 30 AB         [ 8] 2468 	leax	d,y	; tmp49,, ivtmp.939
   13C5 E6 01         [ 5] 2469 	ldb	1,x	;,
   13C7 E7 66         [ 5] 2470 	stb	6,s	;, c.944
   13C9 1F 20         [ 6] 2471 	tfr	y,d	; ivtmp.939, tmp50
   13CB C3 00 02      [ 4] 2472 	addd	#2; addhi3,3	; tmp50,
   13CE AE 62         [ 6] 2473 	ldx	2,s	;, s1
   13D0 30 8B         [ 8] 2474 	leax	d,x	;, tmp50,
   13D2 AF E4         [ 5] 2475 	stx	,s	;, s1.945
   13D4 E6 66         [ 5] 2476 	ldb	6,s	;, c.944
   13D6 C1 25         [ 2] 2477 	cmpb	#37	;cmpqi:	;,
   13D8 26 D6         [ 3] 2478 	bne	L469	;
   13DA                    2479 L451:
   13DA AE 6D         [ 6] 2480 	ldx	13,s	;, s2
   13DC E6 84         [ 4] 2481 	ldb	,x	; c.942,
   13DE 27 08         [ 3] 2482 	beq	L453	;
   13E0 30 01         [ 5] 2483 	leax	1,x	; s2.940,,
   13E2                    2484 L454:
   13E2 E7 C0         [ 6] 2485 	stb	,u+	; c.942,
   13E4 E6 80         [ 6] 2486 	ldb	,x+	; c.942,
   13E6 26 FA         [ 3] 2487 	bne	L454	;
   13E8                    2488 L453:
   13E8 AE E4         [ 5] 2489 	ldx	,s	; s1.943, s1.945
   13EA E6 80         [ 6] 2490 	ldb	,x+	; c.941,
   13EC C1 25         [ 2] 2491 	cmpb	#37	;cmpqi:	; c.941,
   13EE 27 08         [ 3] 2492 	beq	L455	;
   13F0                    2493 L465:
   13F0 E7 C0         [ 6] 2494 	stb	,u+	; c.941,
   13F2 E6 80         [ 6] 2495 	ldb	,x+	; c.941,
   13F4 C1 25         [ 2] 2496 	cmpb	#37	;cmpqi:	; c.941,
   13F6 26 F8         [ 3] 2497 	bne	L465	;
   13F8                    2498 L455:
   13F8 F6 00 00      [ 5] 2499 	ldb	_stringBuffer6	;, stringBuffer6
   13FB E7 C0         [ 6] 2500 	stb	,u+	;,
   13FD F6 00 01      [ 5] 2501 	ldb	_stringBuffer6+1	; D.3464, stringBuffer6
   1400 27 02         [ 3] 2502 	beq	L457	;
   1402 E7 C0         [ 6] 2503 	stb	,u+	; D.3464,
   1404                    2504 L457:
   1404 F6 00 02      [ 5] 2505 	ldb	_stringBuffer6+2	; D.3466, stringBuffer6
   1407 27 02         [ 3] 2506 	beq	L458	;
   1409 E7 C0         [ 6] 2507 	stb	,u+	; D.3466,
   140B                    2508 L458:
   140B F6 00 03      [ 5] 2509 	ldb	_stringBuffer6+3	; D.3468, stringBuffer6
   140E 27 02         [ 3] 2510 	beq	L459	;
   1410 E7 C0         [ 6] 2511 	stb	,u+	; D.3468,
   1412                    2512 L459:
   1412 F6 00 04      [ 5] 2513 	ldb	_stringBuffer6+4	; D.3470, stringBuffer6
   1415 27 02         [ 3] 2514 	beq	L460	;
   1417 E7 C0         [ 6] 2515 	stb	,u+	; D.3470,
   1419                    2516 L460:
   1419 F6 00 05      [ 5] 2517 	ldb	_stringBuffer6+5	; D.3472, stringBuffer6
   141C 27 02         [ 3] 2518 	beq	L461	;
   141E E7 C0         [ 6] 2519 	stb	,u+	; D.3472,
   1420                    2520 L461:
   1420 E6 84         [ 4] 2521 	ldb	,x	; c,* s1.943
   1422 27 08         [ 3] 2522 	beq	L462	;
   1424 30 01         [ 5] 2523 	leax	1,x	; s1.937,, s1.943
   1426                    2524 L463:
   1426 E7 C0         [ 6] 2525 	stb	,u+	; c,
   1428 E6 80         [ 6] 2526 	ldb	,x+	; c,
   142A 26 FA         [ 3] 2527 	bne	L463	;
   142C                    2528 L462:
   142C C6 80         [ 2] 2529 	ldb	#-128	;,
   142E E7 C4         [ 4] 2530 	stb	,u	;,* to
   1430 32 67         [ 5] 2531 	leas	7,s	;,,
   1432 35 E0         [ 8] 2532 	puls	y,u,pc	;
                           2533 	.globl	__fl_l_s
   1434                    2534 __fl_l_s:
   1434 34 60         [ 7] 2535 	pshs	y,u	;
   1436 32 7B         [ 5] 2536 	leas	-5,s	;,,
   1438 AF E4         [ 5] 2537 	stx	,s	; s1, s1
   143A 10 8E 00 00   [ 4] 2538 	ldy	#_stringBuffer12	; tmp43,
   143E 34 20         [ 6] 2539 	pshs	y	; tmp43
   1440 C6 01         [ 2] 2540 	ldb	#1	;,
   1442 AE 6D         [ 6] 2541 	ldx	13,s	;, i1
   1444 BD 01 E0      [ 8] 2542 	jsr	__ltoa
   1447 30 A4         [ 4] 2543 	leax	,y	;, tmp43
   1449 BD 00 3A      [ 8] 2544 	jsr	_removeSpaces
   144C 10 8E 00 00   [ 4] 2545 	ldy	#_stringBufferExtra	; tmp44,
   1450 34 20         [ 6] 2546 	pshs	y	; tmp44
   1452 C6 01         [ 2] 2547 	ldb	#1	;,
   1454 AE E8 11      [ 6] 2548 	ldx	17,s	;, i2
   1457 BD 01 E0      [ 8] 2549 	jsr	__ltoa
   145A 30 A4         [ 4] 2550 	leax	,y	;, tmp44
   145C BD 00 3A      [ 8] 2551 	jsr	_removeSpaces
   145F 10 AE 64      [ 7] 2552 	ldy	4,s	; s1.1005, s1
   1462 E6 A0         [ 6] 2553 	ldb	,y+	;,
   1464 E7 68         [ 5] 2554 	stb	8,s	;, c.1004
   1466 32 64         [ 5] 2555 	leas	4,s	;,,
   1468 CE 00 00      [ 3] 2556 	ldu	#_stringBuffer40	; to,
   146B C1 25         [ 2] 2557 	cmpb	#37	;cmpqi:	;,
   146D 27 2E         [ 3] 2558 	beq	L472	;
   146F 10 8E 00 00   [ 4] 2559 	ldy	#0	; ivtmp.998,
   1473 20 03         [ 3] 2560 	bra	L473	;
   1475                    2561 L489:
   1475 10 AE 62      [ 7] 2562 	ldy	2,s	; ivtmp.998, ivtmp.992
   1478                    2563 L473:
   1478 E6 64         [ 5] 2564 	ldb	4,s	;, c.1004
   147A E7 A9 00 00   [ 8] 2565 	stb	_stringBuffer40,y	;,
   147E 30 21         [ 5] 2566 	leax	1,y	;,, ivtmp.998
   1480 AF 62         [ 6] 2567 	stx	2,s	;, ivtmp.992
   1482 33 89 00 00   [ 8] 2568 	leau	_stringBuffer40,x	; to,,
   1486 EC E4         [ 5] 2569 	ldd	,s	;, s1
   1488 30 AB         [ 8] 2570 	leax	d,y	; tmp46,, ivtmp.998
   148A E6 01         [ 5] 2571 	ldb	1,x	;,
   148C E7 64         [ 5] 2572 	stb	4,s	;, c.1004
   148E 1F 20         [ 6] 2573 	tfr	y,d	; ivtmp.998, tmp47
   1490 C3 00 02      [ 4] 2574 	addd	#2; addhi3,3	; tmp47,
   1493 AE E4         [ 5] 2575 	ldx	,s	;, s1
   1495 31 8B         [ 8] 2576 	leay	d,x	; s1.1005, tmp47,
   1497 E6 64         [ 5] 2577 	ldb	4,s	;, c.1004
   1499 C1 25         [ 2] 2578 	cmpb	#37	;cmpqi:	;,
   149B 26 D8         [ 3] 2579 	bne	L489	;
   149D                    2580 L472:
   149D F6 00 00      [ 5] 2581 	ldb	_stringBuffer12	; c.1003, stringBuffer12
   14A0 27 11         [ 3] 2582 	beq	L488	;
   14A2 8E 00 01      [ 3] 2583 	ldx	#_stringBuffer12+1	; from,
   14A5                    2584 L475:
   14A5 E7 C0         [ 6] 2585 	stb	,u+	; c.1003,
   14A7 E6 80         [ 6] 2586 	ldb	,x+	; c.1003,
   14A9 26 FA         [ 3] 2587 	bne	L475	;
   14AB E6 A0         [ 6] 2588 	ldb	,y+	; c.1001,
   14AD C1 25         [ 2] 2589 	cmpb	#37	;cmpqi:	; c.1001,
   14AF 27 08         [ 3] 2590 	beq	L490	;
   14B1                    2591 L483:
   14B1 E7 C0         [ 6] 2592 	stb	,u+	; c.1001,
   14B3                    2593 L488:
   14B3 E6 A0         [ 6] 2594 	ldb	,y+	; c.1001,
   14B5 C1 25         [ 2] 2595 	cmpb	#37	;cmpqi:	; c.1001,
   14B7 26 F8         [ 3] 2596 	bne	L483	;
   14B9                    2597 L490:
   14B9 F6 00 00      [ 5] 2598 	ldb	_stringBufferExtra	; c.999, stringBufferExtra
   14BC 27 09         [ 3] 2599 	beq	L478	;
   14BE 8E 00 01      [ 3] 2600 	ldx	#_stringBufferExtra+1	; from2,
   14C1                    2601 L479:
   14C1 E7 C0         [ 6] 2602 	stb	,u+	; c.999,
   14C3 E6 80         [ 6] 2603 	ldb	,x+	; c.999,
   14C5 26 FA         [ 3] 2604 	bne	L479	;
   14C7                    2605 L478:
   14C7 E6 A4         [ 4] 2606 	ldb	,y	; c,* s1.1002
   14C9 27 08         [ 3] 2607 	beq	L480	;
   14CB 30 21         [ 5] 2608 	leax	1,y	; s1.1000,, s1.1002
   14CD                    2609 L481:
   14CD E7 C0         [ 6] 2610 	stb	,u+	; c,
   14CF E6 80         [ 6] 2611 	ldb	,x+	; c,
   14D1 26 FA         [ 3] 2612 	bne	L481	;
   14D3                    2613 L480:
   14D3 C6 80         [ 2] 2614 	ldb	#-128	;,
   14D5 E7 C4         [ 4] 2615 	stb	,u	;,* to
   14D7 32 65         [ 5] 2616 	leas	5,s	;,,
   14D9 35 E0         [ 8] 2617 	puls	y,u,pc	;
                           2618 	.globl	__fll
   14DB                    2619 __fll:
   14DB 34 60         [ 7] 2620 	pshs	y,u	;
   14DD 32 77         [ 5] 2621 	leas	-9,s	;,,
   14DF AF 64         [ 6] 2622 	stx	4,s	; s1, s1
   14E1 AE 6F         [ 6] 2623 	ldx	15,s	;, i
   14E3 AF E4         [ 5] 2624 	stx	,s	;,
   14E5 EC E8 11      [ 6] 2625 	ldd	17,s	;, i
   14E8 ED 62         [ 6] 2626 	std	2,s	;,
   14EA 8E 00 00      [ 3] 2627 	ldx	#_stringBuffer12	;,
   14ED BD 04 87      [ 8] 2628 	jsr	__lltoa
   14F0 EE 64         [ 6] 2629 	ldu	4,s	; s1.1047, s1
   14F2 E6 C0         [ 6] 2630 	ldb	,u+	;,
   14F4 E7 68         [ 5] 2631 	stb	8,s	;, c.1046
   14F6 32 64         [ 5] 2632 	leas	4,s	;,,
   14F8 10 8E 00 00   [ 4] 2633 	ldy	#_stringBuffer40	; to,
   14FC C1 25         [ 2] 2634 	cmpb	#37	;cmpqi:	;,
   14FE 27 2C         [ 3] 2635 	beq	L493	;
   1500 CE 00 00      [ 3] 2636 	ldu	#0	; ivtmp.1045,
   1503 20 02         [ 3] 2637 	bra	L494	;
   1505                    2638 L502:
   1505 EE 62         [ 6] 2639 	ldu	2,s	; ivtmp.1045, ivtmp.1037
   1507                    2640 L494:
   1507 E6 64         [ 5] 2641 	ldb	4,s	;, c.1046
   1509 E7 C9 00 00   [ 8] 2642 	stb	_stringBuffer40,u	;,
   150D 30 41         [ 5] 2643 	leax	1,u	;,, ivtmp.1045
   150F AF 62         [ 6] 2644 	stx	2,s	;, ivtmp.1037
   1511 31 89 00 00   [ 8] 2645 	leay	_stringBuffer40,x	; to,,
   1515 EC E4         [ 5] 2646 	ldd	,s	;, s1
   1517 30 CB         [ 8] 2647 	leax	d,u	; tmp39,, ivtmp.1045
   1519 E6 01         [ 5] 2648 	ldb	1,x	;,
   151B E7 64         [ 5] 2649 	stb	4,s	;, c.1046
   151D 1F 30         [ 6] 2650 	tfr	u,d	; ivtmp.1045, tmp40
   151F C3 00 02      [ 4] 2651 	addd	#2; addhi3,3	; tmp40,
   1522 AE E4         [ 5] 2652 	ldx	,s	;, s1
   1524 33 8B         [ 8] 2653 	leau	d,x	; s1.1047, tmp40,
   1526 E6 64         [ 5] 2654 	ldb	4,s	;, c.1046
   1528 C1 25         [ 2] 2655 	cmpb	#37	;cmpqi:	;,
   152A 26 D9         [ 3] 2656 	bne	L502	;
   152C                    2657 L493:
   152C F6 00 00      [ 5] 2658 	ldb	_stringBuffer12	; c.1044, stringBuffer12
   152F 27 09         [ 3] 2659 	beq	L495	;
   1531 8E 00 01      [ 3] 2660 	ldx	#_stringBuffer12+1	; from,
   1534                    2661 L496:
   1534 E7 A0         [ 6] 2662 	stb	,y+	; c.1044,
   1536 E6 80         [ 6] 2663 	ldb	,x+	; c.1044,
   1538 26 FA         [ 3] 2664 	bne	L496	;
   153A                    2665 L495:
   153A E6 C4         [ 4] 2666 	ldb	,u	; c,* s1.1047
   153C 27 08         [ 3] 2667 	beq	L497	;
   153E 30 41         [ 5] 2668 	leax	1,u	; s1.1043,, s1.1047
   1540                    2669 L498:
   1540 E7 A0         [ 6] 2670 	stb	,y+	; c,
   1542 E6 80         [ 6] 2671 	ldb	,x+	; c,
   1544 26 FA         [ 3] 2672 	bne	L498	;
   1546                    2673 L497:
   1546 C6 80         [ 2] 2674 	ldb	#-128	;,
   1548 E7 A4         [ 4] 2675 	stb	,y	;,* to
   154A 32 65         [ 5] 2676 	leas	5,s	;,,
   154C 35 E0         [ 8] 2677 	puls	y,u,pc	;
                           2678 	.globl	_printfsi
   154E                    2679 _printfsi:
   154E 34 60         [ 7] 2680 	pshs	y,u	;
   1550 32 74         [ 5] 2681 	leas	-12,s	;,,
   1552 AF 63         [ 6] 2682 	stx	3,s	; s1, s1
   1554 BD 00 5A      [ 8] 2683 	jsr	_itoa
   1557 AE 63         [ 6] 2684 	ldx	3,s	;, s1
   1559 30 01         [ 5] 2685 	leax	1,x	;,,
   155B AF 61         [ 6] 2686 	stx	1,s	;, s1.1103
   155D 30 1F         [ 5] 2687 	leax	-1,x	;,,
   155F E6 80         [ 6] 2688 	ldb	,x+	;,
   1561 E7 6B         [ 5] 2689 	stb	11,s	;, c.1102
   1563 10 8E 00 00   [ 4] 2690 	ldy	#_stringBuffer40	; to.1095,
   1567 C1 25         [ 2] 2691 	cmpb	#37	;cmpqi:	;,
   1569 27 2E         [ 3] 2692 	beq	L505	;
   156B CE 00 00      [ 3] 2693 	ldu	#0	; ivtmp.1099,
   156E 20 02         [ 3] 2694 	bra	L506	;
   1570                    2695 L518:
   1570 EE 65         [ 6] 2696 	ldu	5,s	; ivtmp.1099, ivtmp.1088
   1572                    2697 L506:
   1572 E6 6B         [ 5] 2698 	ldb	11,s	;, c.1102
   1574 E7 C9 00 00   [ 8] 2699 	stb	_stringBuffer40,u	;,
   1578 30 41         [ 5] 2700 	leax	1,u	;,, ivtmp.1099
   157A AF 65         [ 6] 2701 	stx	5,s	;, ivtmp.1088
   157C 31 89 00 00   [ 8] 2702 	leay	_stringBuffer40,x	; to.1095,,
   1580 EC 63         [ 6] 2703 	ldd	3,s	;, s1
   1582 30 CB         [ 8] 2704 	leax	d,u	; tmp46,, ivtmp.1099
   1584 E6 01         [ 5] 2705 	ldb	1,x	;,
   1586 E7 6B         [ 5] 2706 	stb	11,s	;, c.1102
   1588 1F 30         [ 6] 2707 	tfr	u,d	; ivtmp.1099, tmp47
   158A C3 00 02      [ 4] 2708 	addd	#2; addhi3,3	; tmp47,
   158D AE 63         [ 6] 2709 	ldx	3,s	;, s1
   158F 30 8B         [ 8] 2710 	leax	d,x	;, tmp47,
   1591 AF 61         [ 6] 2711 	stx	1,s	;, s1.1103
   1593 E6 6B         [ 5] 2712 	ldb	11,s	;, c.1102
   1595 C1 25         [ 2] 2713 	cmpb	#37	;cmpqi:	;,
   1597 26 D7         [ 3] 2714 	bne	L518	;
   1599                    2715 L505:
   1599 AE E8 12      [ 6] 2716 	ldx	18,s	;, s2
   159C E6 84         [ 4] 2717 	ldb	,x	; c.1100,
   159E 27 08         [ 3] 2718 	beq	L507	;
   15A0 33 01         [ 5] 2719 	leau	1,x	; s2.1101,,
   15A2                    2720 L508:
   15A2 E7 A0         [ 6] 2721 	stb	,y+	; c.1100,
   15A4 E6 C0         [ 6] 2722 	ldb	,u+	; c.1100,
   15A6 26 FA         [ 3] 2723 	bne	L508	;
   15A8                    2724 L507:
   15A8 EE 61         [ 6] 2725 	ldu	1,s	;, s1.1103
   15AA 33 41         [ 5] 2726 	leau	1,u	;,,
   15AC EF 69         [ 6] 2727 	stu	9,s	;, s1.1098
   15AE 33 5F         [ 5] 2728 	leau	-1,u	;,,
   15B0 E6 C0         [ 6] 2729 	ldb	,u+	; c.1097,
   15B2 C1 25         [ 2] 2730 	cmpb	#37	;cmpqi:	; c.1097,
   15B4 27 10         [ 3] 2731 	beq	L509	;
   15B6                    2732 L514:
   15B6 E7 A0         [ 6] 2733 	stb	,y+	; c.1097,
   15B8 AE 69         [ 6] 2734 	ldx	9,s	;, s1.1098
   15BA 30 01         [ 5] 2735 	leax	1,x	;,,
   15BC AF 69         [ 6] 2736 	stx	9,s	;, s1.1098
   15BE 30 1F         [ 5] 2737 	leax	-1,x	;,,
   15C0 E6 80         [ 6] 2738 	ldb	,x+	; c.1097,
   15C2 C1 25         [ 2] 2739 	cmpb	#37	;cmpqi:	; c.1097,
   15C4 26 F0         [ 3] 2740 	bne	L514	;
   15C6                    2741 L509:
   15C6 30 A4         [ 4] 2742 	leax	,y	; to, to.1095
   15C8 F6 00 00      [ 5] 2743 	ldb	_stringBuffer4	;, stringBuffer4
   15CB E7 80         [ 6] 2744 	stb	,x+	;,
   15CD F6 00 01      [ 5] 2745 	ldb	_stringBuffer4+1	;, stringBuffer4
   15D0 E7 80         [ 6] 2746 	stb	,x+	;,
   15D2 F6 00 02      [ 5] 2747 	ldb	_stringBuffer4+2	;, stringBuffer4
   15D5 30 01         [ 5] 2748 	leax	1,x	; to.1094,, to.1094
   15D7 AF 67         [ 6] 2749 	stx	7,s	; to.1094, to.1096
   15D9 30 1F         [ 5] 2750 	leax	-1,x	; to.1094,, to.1094
   15DB E7 80         [ 6] 2751 	stb	,x+	;,
   15DD AE 69         [ 6] 2752 	ldx	9,s	;, s1.1098
   15DF E6 84         [ 4] 2753 	ldb	,x	;,
   15E1 E7 E4         [ 4] 2754 	stb	,s	;, c
   15E3 27 20         [ 3] 2755 	beq	L511	;
   15E5 CE 00 00      [ 3] 2756 	ldu	#0	; ivtmp.1066,
   15E8                    2757 L512:
   15E8 1F 20         [ 6] 2758 	tfr	y,d	; to.1095,
   15EA 30 CB         [ 8] 2759 	leax	d,u	; tmp51,, ivtmp.1066
   15EC E6 E4         [ 4] 2760 	ldb	,s	;, c
   15EE E7 03         [ 5] 2761 	stb	3,x	;,
   15F0 30 44         [ 5] 2762 	leax	4,u	; tmp52,, ivtmp.1066
   15F2 1F 20         [ 6] 2763 	tfr	y,d	; to.1095,
   15F4 30 8B         [ 8] 2764 	leax	d,x	;,, tmp52
   15F6 AF 67         [ 6] 2765 	stx	7,s	;, to.1096
   15F8 EC 69         [ 6] 2766 	ldd	9,s	;, s1.1098
   15FA 30 CB         [ 8] 2767 	leax	d,u	; tmp53,, ivtmp.1066
   15FC E6 01         [ 5] 2768 	ldb	1,x	;,
   15FE E7 E4         [ 4] 2769 	stb	,s	;, c
   1600 33 41         [ 5] 2770 	leau	1,u	; ivtmp.1066,, ivtmp.1066
   1602 5D            [ 2] 2771 	tstb	;
   1603 26 E3         [ 3] 2772 	bne	L512	;
   1605                    2773 L511:
   1605 C6 80         [ 2] 2774 	ldb	#-128	;,
   1607 AE 67         [ 6] 2775 	ldx	7,s	;, to.1096
   1609 E7 84         [ 4] 2776 	stb	,x	;,
   160B F6 00 00      [ 5] 2777 	ldb	__YC	; _YC.28, _YC
   160E CB F6         [ 2] 2778 	addb	#-10	; _YC.28,
   1610 F7 00 00      [ 5] 2779 	stb	__YC	; _YC.28, _YC
   1613 34 04         [ 6] 2780 	pshs	b	; _YC.28
   1615 8E 00 00      [ 3] 2781 	ldx	#_stringBuffer40	;,
   1618 F6 00 00      [ 5] 2782 	ldb	__XC	;, _XC
   161B BD 00 00      [ 8] 2783 	jsr	_syncPrintStrd
   161E C6 CC         [ 2] 2784 	ldb	#-52	;,
   1620 D7 00         [ 4] 2785 	stb	*_dp_VIA_cntl	;, dp_VIA_cntl
   1622 32 6D         [ 5] 2786 	leas	13,s	;,,
   1624 35 E0         [ 8] 2787 	puls	y,u,pc	;
                           2788 	.globl	_vstrlen
   1626                    2789 _vstrlen:
   1626 34 40         [ 6] 2790 	pshs	u	;
   1628 32 7F         [ 5] 2791 	leas	-1,s	;,,
   162A 33 84         [ 4] 2792 	leau	,x	; s, s
   162C E6 84         [ 4] 2793 	ldb	,x	; temp.1123,* s
   162E 27 26         [ 3] 2794 	beq	L520	;
   1630 C1 80         [ 2] 2795 	cmpb	#-128	;cmpqi:	; temp.1123,
   1632 26 06         [ 3] 2796 	bne	L522	;
   1634 20 20         [ 3] 2797 	bra	L520	;
   1636                    2798 L525:
   1636 C1 80         [ 2] 2799 	cmpb	#-128	;cmpqi:	; D.3560,
   1638 27 16         [ 3] 2800 	beq	L521	;
   163A                    2801 L522:
   163A 1F 30         [ 6] 2802 	tfr	u,d	;movlsbqihi: R:u -> R:b	; s,
   163C E7 E4         [ 4] 2803 	stb	,s	;, t
   163E C6 01         [ 2] 2804 	ldb	#1	; tmp49,
   1640 E0 E4         [ 4] 2805 	subb	,s	; tmp49, t
   1642 E7 E4         [ 4] 2806 	stb	,s	; tmp49, t
   1644 1F 10         [ 6] 2807 	tfr	x,d	;movlsbqihi: R:x -> R:b	; s.1122, s.1122
   1646 EB E4         [ 4] 2808 	addb	,s	; s.1122, t
   1648 E7 E4         [ 4] 2809 	stb	,s	; s.1122, t
   164A 30 01         [ 5] 2810 	leax	1,x	; s.1122,, s.1122
   164C E6 84         [ 4] 2811 	ldb	,x	; D.3560,* s.1122
   164E 26 E6         [ 3] 2812 	bne	L525	;
   1650                    2813 L521:
   1650 E6 E4         [ 4] 2814 	ldb	,s	;, t
   1652 32 61         [ 5] 2815 	leas	1,s	;,,
   1654 35 C0         [ 7] 2816 	puls	u,pc	;
   1656                    2817 L520:
   1656 6F E4         [ 6] 2818 	clr	,s	; t
   1658 20 F6         [ 3] 2819 	bra	L521	;
                           2820 	.globl	_exchange0with80
   165A                    2821 _exchange0with80:
   165A 20 06         [ 3] 2822 	bra	L533	;
   165C                    2823 L534:
   165C C1 80         [ 2] 2824 	cmpb	#-128	;cmpqi:	; temp.1141,
   165E 27 06         [ 3] 2825 	beq	L527	;
   1660 30 01         [ 5] 2826 	leax	1,x	; s,, s
   1662                    2827 L533:
   1662 E6 84         [ 4] 2828 	ldb	,x	; D.3568,* s
   1664 26 F6         [ 3] 2829 	bne	L534	;
   1666                    2830 L527:
   1666 C6 80         [ 2] 2831 	ldb	#-128	;,
   1668 E7 84         [ 4] 2832 	stb	,x	;,* s
   166A 39            [ 5] 2833 	rts
                           2834 	.globl	_displayMessages
   166B                    2835 _displayMessages:
   166B 34 40         [ 6] 2836 	pshs	u	;
   166D 32 7F         [ 5] 2837 	leas	-1,s	;,,
   166F C6 7F         [ 2] 2838 	ldb	#127	;,
   1671 D7 00         [ 4] 2839 	stb	*_dp_VIA_t1_cnt_lo	;, dp_VIA_t1_cnt_lo
   1673 C6 28         [ 2] 2840 	ldb	#40	;,
   1675 F7 00 00      [ 5] 2841 	stb	_Vec_Text_Width	;, Vec_Text_Width
   1678 CB 37         [ 2] 2842 	addb	#55	;,
   167A BD 00 00      [ 8] 2843 	jsr	__Intensity_a
   167D C6 AC         [ 2] 2844 	ldb	#-84	;,
   167F F7 00 00      [ 5] 2845 	stb	__YC	;, _YC
   1682 7D 00 00      [ 7] 2846 	tst	_msgLine	; msgLine
   1685 2F 26         [ 3] 2847 	ble	L538	;
   1687 CE 00 00      [ 3] 2848 	ldu	#_msg	; ivtmp.1160,
   168A 6F E4         [ 6] 2849 	clr	,s	; i
   168C                    2850 L537:
   168C AE C1         [ 8] 2851 	ldx	,u++	; D.3576, msg
   168E F6 00 00      [ 5] 2852 	ldb	__YC	; _YC.32, _YC
   1691 CB F6         [ 2] 2853 	addb	#-10	; _YC.32,
   1693 F7 00 00      [ 5] 2854 	stb	__YC	; _YC.32, _YC
   1696 34 04         [ 6] 2855 	pshs	b	; _YC.32
   1698 F6 00 00      [ 5] 2856 	ldb	__XC	;, _XC
   169B BD 00 00      [ 8] 2857 	jsr	_syncPrintStrd
   169E C6 CC         [ 2] 2858 	ldb	#-52	;,
   16A0 D7 00         [ 4] 2859 	stb	*_dp_VIA_cntl	;, dp_VIA_cntl
   16A2 6C 61         [ 7] 2860 	inc	1,s	; i
   16A4 32 61         [ 5] 2861 	leas	1,s	;,,
   16A6 E6 E4         [ 4] 2862 	ldb	,s	;, i
   16A8 F1 00 00      [ 5] 2863 	cmpb	_msgLine	;cmpqi:(R)	;, msgLine
   16AB 2D DF         [ 3] 2864 	blt	L537	;
   16AD                    2865 L538:
   16AD 32 61         [ 5] 2866 	leas	1,s	;,,
   16AF 35 C0         [ 7] 2867 	puls	u,pc	;
                           2868 	.globl	_lRandMax
   16B1                    2869 _lRandMax:
   16B1 32 7D         [ 5] 2870 	leas	-3,s	;,,
   16B3 E7 61         [ 5] 2871 	stb	1,s	; m, m
   16B5 27 42         [ 3] 2872 	beq	L544	;
   16B7 F6 00 00      [ 5] 2873 	ldb	__x	;, _x
   16BA 5C            [ 2] 2874 	incb	;
   16BB E7 E4         [ 4] 2875 	stb	,s	;, _x.6
   16BD F7 00 00      [ 5] 2876 	stb	__x	;, _x
   16C0 F6 00 00      [ 5] 2877 	ldb	__c	;, _c
   16C3 F8 00 00      [ 5] 2878 	eorb	__a	;, _a
   16C6 E7 62         [ 5] 2879 	stb	2,s	;, _a.9
   16C8 E6 E4         [ 4] 2880 	ldb	,s	;, _x.6
   16CA E8 62         [ 5] 2881 	eorb	2,s	;, _a.9
   16CC E7 62         [ 5] 2882 	stb	2,s	;, _a.9
   16CE F7 00 00      [ 5] 2883 	stb	__a	;, _a
   16D1 FB 00 00      [ 5] 2884 	addb	__b	; _b.11, _b
   16D4 F7 00 00      [ 5] 2885 	stb	__b	; _b.11, _b
   16D7 54            [ 2] 2886 	lsrb	; _b.11
   16D8 FB 00 00      [ 5] 2887 	addb	__c	; _b.11, _c
   16DB E8 62         [ 5] 2888 	eorb	2,s	; _b.11, _a.9
   16DD E7 E4         [ 4] 2889 	stb	,s	; _b.11, _c.12
   16DF F7 00 00      [ 5] 2890 	stb	__c	; _b.11, _c
   16E2 E6 61         [ 5] 2891 	ldb	1,s	;, m
   16E4 4F            [ 2] 2892 	clra		;zero_extendqihi: R:b -> R:d	;,
   16E5 34 06         [ 7] 2893 	pshs	d	; m
   16E7 E6 62         [ 5] 2894 	ldb	2,s	;, _c.12
   16E9 4F            [ 2] 2895 	clra		;zero_extendqihi: R:b -> R:d	;,
   16EA 1F 01         [ 6] 2896 	tfr	d,x	;,
   16EC BD 00 00      [ 8] 2897 	jsr	_umodhi3
   16EF 32 62         [ 5] 2898 	leas	2,s	;,,
   16F1 1F 10         [ 6] 2899 	tfr	x,d	;, tmp41
   16F3 4F            [ 2] 2900 	clra		;zero_extendqihi: R:b -> R:d	; tmp41, prephitmp.1170
   16F4 1F 01         [ 6] 2901 	tfr	d,x	; prephitmp.1170,
   16F6 32 63         [ 5] 2902 	leas	3,s	;,,
   16F8 39            [ 5] 2903 	rts
   16F9                    2904 L544:
   16F9 CC 00 00      [ 3] 2905 	ldd	#0	; prephitmp.1170,
   16FC 1F 01         [ 6] 2906 	tfr	d,x	; prephitmp.1170,
   16FE 32 63         [ 5] 2907 	leas	3,s	;,,
   1700 39            [ 5] 2908 	rts
ASxxxx Assembler V05.00  (Motorola 6809), page 1.
Hexidecimal [16-Bits]

Symbol Table

    .__.$$$.       =   2710 L   |     .__.ABS.       =   0000 G
    .__.CPU.       =   0000 L   |     .__.H$L.       =   0001 L
  2 A$string$100       005E GR  |   2 A$string$1000      07EA GR
  2 A$string$1001      07EC GR  |   2 A$string$1003      07EE GR
  2 A$string$1004      07F0 GR  |   2 A$string$1005      07F2 GR
  2 A$string$1006      07F5 GR  |   2 A$string$1008      07F9 GR
  2 A$string$1009      07FC GR  |   2 A$string$101       0060 GR
  2 A$string$1011      0800 GR  |   2 A$string$1012      0802 GR
  2 A$string$1013      0805 GR  |   2 A$string$1015      0809 GR
  2 A$string$1016      080B GR  |   2 A$string$1017      080E GR
  2 A$string$1018      0810 GR  |   2 A$string$1019      0812 GR
  2 A$string$102       0062 GR  |   2 A$string$1020      0814 GR
  2 A$string$1021      0816 GR  |   2 A$string$1022      0818 GR
  2 A$string$1023      081A GR  |   2 A$string$1024      081D GR
  2 A$string$1025      081F GR  |   2 A$string$1026      0821 GR
  2 A$string$1027      0824 GR  |   2 A$string$1029      0828 GR
  2 A$string$103       0064 GR  |   2 A$string$1030      082A GR
  2 A$string$1031      082D GR  |   2 A$string$1032      082F GR
  2 A$string$1033      0831 GR  |   2 A$string$1034      0833 GR
  2 A$string$1035      0835 GR  |   2 A$string$1036      0837 GR
  2 A$string$1037      0839 GR  |   2 A$string$1038      083C GR
  2 A$string$1039      083E GR  |   2 A$string$104       0066 GR
  2 A$string$1040      0840 GR  |   2 A$string$1041      0843 GR
  2 A$string$1043      0847 GR  |   2 A$string$1044      0849 GR
  2 A$string$1045      084C GR  |   2 A$string$1046      084E GR
  2 A$string$1047      0850 GR  |   2 A$string$1048      0852 GR
  2 A$string$1049      0854 GR  |   2 A$string$105       0068 GR
  2 A$string$1050      0856 GR  |   2 A$string$1051      0858 GR
  2 A$string$1052      085B GR  |   2 A$string$1053      085D GR
  2 A$string$1054      085F GR  |   2 A$string$1055      0861 GR
  2 A$string$1057      0865 GR  |   2 A$string$1058      0867 GR
  2 A$string$1059      086A GR  |   2 A$string$106       006C GR
  2 A$string$1060      086E GR  |   2 A$string$1061      0872 GR
  2 A$string$1062      0874 GR  |   2 A$string$1064      0877 GR
  2 A$string$1065      0879 GR  |   2 A$string$1066      087D GR
  2 A$string$1068      0881 GR  |   2 A$string$1069      0883 GR
  2 A$string$107       006E GR  |   2 A$string$1070      0886 GR
  2 A$string$1071      0888 GR  |   2 A$string$1072      088A GR
  2 A$string$1073      088C GR  |   2 A$string$1074      088E GR
  2 A$string$1075      0890 GR  |   2 A$string$1076      0893 GR
  2 A$string$1077      0897 GR  |   2 A$string$1079      089A GR
  2 A$string$108       0071 GR  |   2 A$string$1080      089C GR
  2 A$string$1081      08A0 GR  |   2 A$string$1083      08A4 GR
  2 A$string$1084      08A8 GR  |   2 A$string$1086      08AC GR
  2 A$string$1087      08AE GR  |   2 A$string$1088      08B0 GR
  2 A$string$1089      08B3 GR  |   2 A$string$1091      08B7 GR
  2 A$string$1092      08BA GR  |   2 A$string$1093      08BE GR
  2 A$string$1094      08C0 GR  |   2 A$string$1095      08C4 GR
  2 A$string$1096      08C8 GR  |   2 A$string$1098      08CB GR
  2 A$string$1099      08CE GR  |   2 A$string$110       0074 GR
  2 A$string$1100      08D2 GR  |   2 A$string$1102      08D6 GR
  2 A$string$1103      08D8 GR  |   2 A$string$1104      08DB GR
  2 A$string$1105      08DD GR  |   2 A$string$1106      08DF GR
  2 A$string$1107      08E1 GR  |   2 A$string$1108      08E3 GR
  2 A$string$1109      08E5 GR  |   2 A$string$111       0076 GR
  2 A$string$1110      08E7 GR  |   2 A$string$1111      08EA GR
  2 A$string$1113      08EC GR  |   2 A$string$1114      08EE GR
  2 A$string$1115      08F1 GR  |   2 A$string$1117      08F5 GR
  2 A$string$1118      08F8 GR  |   2 A$string$1119      08FC GR
  2 A$string$112       0078 GR  |   2 A$string$1120      08FE GR
  2 A$string$1121      0902 GR  |   2 A$string$1122      0906 GR
  2 A$string$1124      0909 GR  |   2 A$string$1125      090B GR
  2 A$string$1126      090F GR  |   2 A$string$1128      0913 GR
  2 A$string$1129      0915 GR  |   2 A$string$113       007A GR
  2 A$string$1130      0918 GR  |   2 A$string$1131      091A GR
  2 A$string$1132      091C GR  |   2 A$string$1133      091E GR
  2 A$string$1134      0920 GR  |   2 A$string$1135      0922 GR
  2 A$string$1136      0925 GR  |   2 A$string$1137      0929 GR
  2 A$string$1139      092C GR  |   2 A$string$114       007C GR
  2 A$string$1140      092E GR  |   2 A$string$1141      0932 GR
  2 A$string$1143      0936 GR  |   2 A$string$1144      093A GR
  2 A$string$1146      093E GR  |   2 A$string$1147      0940 GR
  2 A$string$1148      0942 GR  |   2 A$string$1149      0945 GR
  2 A$string$1151      0949 GR  |   2 A$string$1152      094C GR
  2 A$string$1153      0950 GR  |   2 A$string$1154      0952 GR
  2 A$string$1155      0956 GR  |   2 A$string$1156      095A GR
  2 A$string$1158      095D GR  |   2 A$string$1159      0960 GR
  2 A$string$116       007E GR  |   2 A$string$1160      0964 GR
  2 A$string$1162      0968 GR  |   2 A$string$1163      096A GR
  2 A$string$1164      096D GR  |   2 A$string$1165      096F GR
  2 A$string$1166      0971 GR  |   2 A$string$1167      0973 GR
  2 A$string$1168      0975 GR  |   2 A$string$1169      0977 GR
  2 A$string$117       0080 GR  |   2 A$string$1170      0979 GR
  2 A$string$1171      097C GR  |   2 A$string$1173      097E GR
  2 A$string$1174      0980 GR  |   2 A$string$1176      0984 GR
  2 A$string$1177      0987 GR  |   2 A$string$1178      098B GR
  2 A$string$1179      098F GR  |   2 A$string$118       0082 GR
  2 A$string$1181      0992 GR  |   2 A$string$1182      0994 GR
  2 A$string$1183      0997 GR  |   2 A$string$1184      0999 GR
  2 A$string$1185      099B GR  |   2 A$string$1186      099D GR
  2 A$string$1187      099F GR  |   2 A$string$1188      09A1 GR
  2 A$string$1189      09A5 GR  |   2 A$string$119       0084 GR
  2 A$string$1190      09A7 GR  |   2 A$string$1191      09A9 GR
  2 A$string$1193      09AD GR  |   2 A$string$1194      09B0 GR
  2 A$string$1195      09B4 GR  |   2 A$string$1196      09B7 GR
  2 A$string$1198      09BA GR  |   2 A$string$1199      09BC GR
  2 A$string$120       0086 GR  |   2 A$string$1200      09BF GR
  2 A$string$1201      09C1 GR  |   2 A$string$1202      09C3 GR
  2 A$string$1203      09C5 GR  |   2 A$string$1204      09C7 GR
  2 A$string$1205      09C9 GR  |   2 A$string$1207      09CC GR
  2 A$string$1208      09CE GR  |   2 A$string$1209      09D1 GR
  2 A$string$1210      09D3 GR  |   2 A$string$1211      09D5 GR
  2 A$string$1212      09D7 GR  |   2 A$string$1213      09D9 GR
  2 A$string$1214      09DB GR  |   2 A$string$1215      09DD GR
  2 A$string$1216      09E0 GR  |   2 A$string$1217      09E2 GR
  2 A$string$1218      09E4 GR  |   2 A$string$1219      09E6 GR
  2 A$string$122       0088 GR  |   2 A$string$1221      09EA GR
  2 A$string$1222      09EC GR  |   2 A$string$1223      09EF GR
  2 A$string$1224      09F3 GR  |   2 A$string$1225      09F7 GR
  2 A$string$1226      09FA GR  |   2 A$string$1227      09FC GR
  2 A$string$1229      09FF GR  |   2 A$string$123       008A GR
  2 A$string$1230      0A01 GR  |   2 A$string$1231      0A04 GR
  2 A$string$1232      0A06 GR  |   2 A$string$1233      0A08 GR
  2 A$string$1234      0A0A GR  |   2 A$string$1235      0A0C GR
  2 A$string$1236      0A0E GR  |   2 A$string$1237      0A10 GR
  2 A$string$1238      0A13 GR  |   2 A$string$1239      0A15 GR
  2 A$string$124       008C GR  |   2 A$string$1241      0A18 GR
  2 A$string$1242      0A1A GR  |   2 A$string$1243      0A1D GR
  2 A$string$1244      0A1F GR  |   2 A$string$1245      0A21 GR
  2 A$string$1246      0A23 GR  |   2 A$string$1247      0A25 GR
  2 A$string$1248      0A27 GR  |   2 A$string$1249      0A29 GR
  2 A$string$125       008E GR  |   2 A$string$1250      0A2C GR
  2 A$string$1251      0A2E GR  |   2 A$string$1252      0A30 GR
  2 A$string$1253      0A32 GR  |   2 A$string$1255      0A36 GR
  2 A$string$1256      0A38 GR  |   2 A$string$1257      0A3B GR
  2 A$string$1258      0A3F GR  |   2 A$string$1259      0A43 GR
  2 A$string$126       0090 GR  |   2 A$string$1260      0A46 GR
  2 A$string$1262      0A49 GR  |   2 A$string$1263      0A4B GR
  2 A$string$1264      0A4E GR  |   2 A$string$1265      0A50 GR
  2 A$string$1266      0A52 GR  |   2 A$string$1267      0A54 GR
  2 A$string$1268      0A56 GR  |   2 A$string$1269      0A58 GR
  2 A$string$1271      0A5B GR  |   2 A$string$1272      0A5D GR
  2 A$string$1273      0A60 GR  |   2 A$string$1274      0A62 GR
  2 A$string$1275      0A64 GR  |   2 A$string$1276      0A66 GR
  2 A$string$1277      0A68 GR  |   2 A$string$1278      0A6A GR
  2 A$string$1279      0A6C GR  |   2 A$string$128       0092 GR
  2 A$string$1280      0A6F GR  |   2 A$string$1281      0A71 GR
  2 A$string$1282      0A73 GR  |   2 A$string$1283      0A75 GR
  2 A$string$1285      0A79 GR  |   2 A$string$1286      0A7B GR
  2 A$string$1287      0A7E GR  |   2 A$string$1288      0A82 GR
  2 A$string$1289      0A86 GR  |   2 A$string$129       0095 GR
  2 A$string$1290      0A88 GR  |   2 A$string$1292      0A8B GR
  2 A$string$1293      0A8D GR  |   2 A$string$1294      0A91 GR
  2 A$string$1296      0A95 GR  |   2 A$string$1297      0A97 GR
  2 A$string$1298      0A9A GR  |   2 A$string$1299      0A9C GR
  2 A$string$130       0097 GR  |   2 A$string$1300      0A9E GR
  2 A$string$1301      0AA0 GR  |   2 A$string$1302      0AA2 GR
  2 A$string$1303      0AA4 GR  |   2 A$string$1304      0AA6 GR
  2 A$string$1305      0AA9 GR  |   2 A$string$1306      0AAB GR
  2 A$string$1307      0AAD GR  |   2 A$string$1308      0AAF GR
  2 A$string$131       0099 GR  |   2 A$string$1310      0AB3 GR
  2 A$string$1311      0AB5 GR  |   2 A$string$1312      0AB8 GR
  2 A$string$1313      0ABC GR  |   2 A$string$1314      0AC0 GR
  2 A$string$1315      0AC2 GR  |   2 A$string$1317      0AC5 GR
  2 A$string$1318      0AC8 GR  |   2 A$string$1319      0ACC GR
  2 A$string$132       009C GR  |   2 A$string$1321      0AD0 GR
  2 A$string$1322      0AD2 GR  |   2 A$string$1323      0AD5 GR
  2 A$string$1324      0AD7 GR  |   2 A$string$1325      0AD9 GR
  2 A$string$1326      0ADB GR  |   2 A$string$1327      0ADD GR
  2 A$string$1328      0ADF GR  |   2 A$string$1329      0AE2 GR
  2 A$string$133       009F GR  |   2 A$string$1330      0AE4 GR
  2 A$string$1331      0AE7 GR  |   2 A$string$1333      0AEA GR
  2 A$string$1334      0AEE GR  |   2 A$string$1336      0AF2 GR
  2 A$string$1337      0AF5 GR  |   2 A$string$1338      0AF8 GR
  2 A$string$1339      0AFA GR  |   2 A$string$134       00A2 GR
  2 A$string$1341      0AFD GR  |   2 A$string$1342      0B00 GR
  2 A$string$1343      0B04 GR  |   2 A$string$1344      0B06 GR
  2 A$string$1345      0B0A GR  |   2 A$string$1346      0B0E GR
  2 A$string$1348      0B11 GR  |   2 A$string$1349      0B15 GR
  2 A$string$135       00A4 GR  |   2 A$string$1351      0B19 GR
  2 A$string$1352      0B1C GR  |   2 A$string$1353      0B1F GR
  2 A$string$1354      0B21 GR  |   2 A$string$1356      0B24 GR
  2 A$string$1357      0B27 GR  |   2 A$string$1358      0B2B GR
  2 A$string$1359      0B2D GR  |   2 A$string$1360      0B31 GR
  2 A$string$1361      0B35 GR  |   2 A$string$1363      0B38 GR
  2 A$string$1364      0B3A GR  |   2 A$string$1365      0B3D GR
  2 A$string$1366      0B41 GR  |   2 A$string$1367      0B45 GR
  2 A$string$1368      0B48 GR  |   2 A$string$137       00A6 GR
  2 A$string$1370      0B4B GR  |   2 A$string$1371      0B4D GR
  2 A$string$1372      0B50 GR  |   2 A$string$1373      0B54 GR
  2 A$string$1374      0B58 GR  |   2 A$string$1375      0B5B GR
  2 A$string$1377      0B5E GR  |   2 A$string$1378      0B61 GR
  2 A$string$1379      0B65 GR  |   2 A$string$138       00A8 GR
  2 A$string$1380      0B69 GR  |   2 A$string$1382      0B6C GR
  2 A$string$1383      0B6E GR  |   2 A$string$1384      0B72 GR
  2 A$string$1385      0B76 GR  |   2 A$string$1387      0B79 GR
  2 A$string$1388      0B7B GR  |   2 A$string$1389      0B7F GR
  2 A$string$139       00AA GR  |   2 A$string$1390      0B83 GR
  2 A$string$1392      0B86 GR  |   2 A$string$1393      0B88 GR
  2 A$string$1394      0B8C GR  |   2 A$string$1395      0B90 GR
  2 A$string$1397      0B93 GR  |   2 A$string$1398      0B95 GR
  2 A$string$1399      0B99 GR  |   2 A$string$140       00AC GR
  2 A$string$1400      0B9D GR  |   2 A$string$1402      0BA0 GR
  2 A$string$1403      0BA2 GR  |   2 A$string$1404      0BA6 GR
  2 A$string$1405      0BAA GR  |   2 A$string$1407      0BAD GR
  2 A$string$1408      0BB1 GR  |   2 A$string$1409      0BB3 GR
  2 A$string$141       00AE GR  |   2 A$string$1410      0BB6 GR
  2 A$string$1411      0BB9 GR  |   2 A$string$1413      0BBC GR
  2 A$string$1414      0BC0 GR  |   2 A$string$1415      0BC2 GR
  2 A$string$1416      0BC5 GR  |   2 A$string$1417      0BC9 GR
  2 A$string$1418      0BCC GR  |   2 A$string$1420      0BCF GR
  2 A$string$1421      0BD2 GR  |   2 A$string$1422      0BD6 GR
  2 A$string$1423      0BD8 GR  |   2 A$string$1424      0BDB GR
  2 A$string$1425      0BDD GR  |   2 A$string$1426      0BDF GR
  2 A$string$1427      0BE1 GR  |   2 A$string$1428      0BE3 GR
  2 A$string$1429      0BE5 GR  |   2 A$string$143       00B0 GR
  2 A$string$1430      0BE7 GR  |   2 A$string$1431      0BEA GR
  2 A$string$1432      0BEC GR  |   2 A$string$1434      0BEF GR
  2 A$string$1435      0BF2 GR  |   2 A$string$1436      0BF6 GR
  2 A$string$1437      0BFA GR  |   2 A$string$1439      0BFD GR
  2 A$string$144       00B2 GR  |   2 A$string$1440      0C00 GR
  2 A$string$1441      0C04 GR  |   2 A$string$1442      0C08 GR
  2 A$string$1444      0C0B GR  |   2 A$string$1445      0C0D GR
  2 A$string$1446      0C10 GR  |   2 A$string$1447      0C12 GR
  2 A$string$1448      0C14 GR  |   2 A$string$1449      0C16 GR
  2 A$string$145       00B4 GR  |   2 A$string$1450      0C18 GR
  2 A$string$1451      0C1A GR  |   2 A$string$1452      0C1D GR
  2 A$string$1453      0C20 GR  |   2 A$string$1455      0C23 GR
  2 A$string$1456      0C25 GR  |   2 A$string$1457      0C28 GR
  2 A$string$1458      0C2A GR  |   2 A$string$1459      0C2C GR
  2 A$string$146       00B6 GR  |   2 A$string$1460      0C2E GR
  2 A$string$1461      0C30 GR  |   2 A$string$1462      0C32 GR
  2 A$string$1463      0C35 GR  |   2 A$string$1464      0C39 GR
  2 A$string$1465      0C3C GR  |   2 A$string$1468      0C3F GR
  2 A$string$1469      0C42 GR  |   2 A$string$147       00B8 GR
  2 A$string$1472      0C45 GR  |   2 A$string$1473      0C47 GR
  2 A$string$1474      0C49 GR  |   2 A$string$1475      0C4B GR
  2 A$string$1476      0C4D GR  |   2 A$string$1477      0C4F GR
  2 A$string$1478      0C52 GR  |   2 A$string$1479      0C55 GR
  2 A$string$148       00BC GR  |   2 A$string$1480      0C57 GR
  2 A$string$1481      0C5A GR  |   2 A$string$1484      0C5D GR
  2 A$string$1485      0C5F GR  |   2 A$string$1486      0C61 GR
  2 A$string$1487      0C63 GR  |   2 A$string$1488      0C65 GR
  2 A$string$1489      0C67 GR  |   2 A$string$149       00BE GR
  2 A$string$1490      0C6A GR  |   2 A$string$1491      0C6C GR
  2 A$string$1492      0C6F GR  |   2 A$string$1493      0C72 GR
  2 A$string$1494      0C75 GR  |   2 A$string$1495      0C78 GR
  2 A$string$1496      0C7A GR  |   2 A$string$1497      0C7C GR
  2 A$string$1498      0C7E GR  |   2 A$string$1499      0C80 GR
  2 A$string$150       00C1 GR  |   2 A$string$1500      0C84 GR
  2 A$string$1501      0C86 GR  |   2 A$string$1502      0C88 GR
  2 A$string$1503      0C8B GR  |   2 A$string$1505      0C8D GR
  2 A$string$1507      0C8F GR  |   2 A$string$1508      0C91 GR
  2 A$string$1509      0C95 GR  |   2 A$string$151       00C4 GR
  2 A$string$1510      0C97 GR  |   2 A$string$1511      0C99 GR
  2 A$string$1512      0C9D GR  |   2 A$string$1513      0C9F GR
  2 A$string$1514      0CA1 GR  |   2 A$string$1515      0CA3 GR
  2 A$string$1516      0CA5 GR  |   2 A$string$1517      0CA7 GR
  2 A$string$1518      0CAA GR  |   2 A$string$1519      0CAC GR
  2 A$string$1520      0CAE GR  |   2 A$string$1521      0CB0 GR
  2 A$string$1522      0CB2 GR  |   2 A$string$1524      0CB4 GR
  2 A$string$1525      0CB7 GR  |   2 A$string$1526      0CB9 GR
  2 A$string$1528      0CBC GR  |   2 A$string$1529      0CBE GR
  2 A$string$153       00C6 GR  |   2 A$string$1530      0CC0 GR
  2 A$string$1532      0CC2 GR  |   2 A$string$1533      0CC4 GR
  2 A$string$1534      0CC6 GR  |   2 A$string$1536      0CC8 GR
  2 A$string$1537      0CCA GR  |   2 A$string$1538      0CCC GR
  2 A$string$154       00C9 GR  |   2 A$string$1540      0CCE GR
  2 A$string$1541      0CD0 GR  |   2 A$string$1542      0CD2 GR
  2 A$string$1543      0CD4 GR  |   2 A$string$1546      0CD6 GR
  2 A$string$1547      0CD8 GR  |   2 A$string$1548      0CDB GR
  2 A$string$1549      0CDD GR  |   2 A$string$155       00CB GR
  2 A$string$1550      0CDF GR  |   2 A$string$1551      0CE1 GR
  2 A$string$1552      0CE3 GR  |   2 A$string$1553      0CE5 GR
  2 A$string$1554      0CE6 GR  |   2 A$string$1555      0CE8 GR
  2 A$string$1556      0CEB GR  |   2 A$string$1557      0CED GR
  2 A$string$1558      0CEF GR  |   2 A$string$1559      0CF1 GR
  2 A$string$156       00CD GR  |   2 A$string$1560      0CF3 GR
  2 A$string$1561      0CF5 GR  |   2 A$string$1562      0CF8 GR
  2 A$string$1563      0CFA GR  |   2 A$string$1564      0CFC GR
  2 A$string$1565      0CFF GR  |   2 A$string$1566      0D00 GR
  2 A$string$1567      0D02 GR  |   2 A$string$1568      0D04 GR
  2 A$string$1569      0D07 GR  |   2 A$string$157       00CF GR
  2 A$string$1570      0D09 GR  |   2 A$string$1573      0D0A GR
  2 A$string$1574      0D0C GR  |   2 A$string$1575      0D0F GR
  2 A$string$1576      0D11 GR  |   2 A$string$1577      0D14 GR
  2 A$string$1578      0D16 GR  |   2 A$string$1579      0D19 GR
  2 A$string$158       00D1 GR  |   2 A$string$1580      0D1B GR
  2 A$string$1581      0D1E GR  |   2 A$string$1582      0D21 GR
  2 A$string$1583      0D24 GR  |   2 A$string$1584      0D26 GR
  2 A$string$1585      0D29 GR  |   2 A$string$1588      0D2A GR
  2 A$string$1589      0D2C GR  |   2 A$string$159       00D4 GR
  2 A$string$1590      0D2E GR  |   2 A$string$1591      0D30 GR
  2 A$string$1592      0D33 GR  |   2 A$string$1593      0D35 GR
  2 A$string$1594      0D37 GR  |   2 A$string$1595      0D39 GR
  2 A$string$1596      0D3B GR  |   2 A$string$1597      0D3D GR
  2 A$string$1598      0D3F GR  |   2 A$string$1599      0D41 GR
  2 A$string$1600      0D45 GR  |   2 A$string$1601      0D47 GR
  2 A$string$1602      0D49 GR  |   2 A$string$1603      0D4C GR
  2 A$string$1605      0D4E GR  |   2 A$string$1607      0D50 GR
  2 A$string$1608      0D52 GR  |   2 A$string$1609      0D56 GR
  2 A$string$161       00D6 GR  |   2 A$string$1610      0D58 GR
  2 A$string$1611      0D5A GR  |   2 A$string$1612      0D5E GR
  2 A$string$1613      0D60 GR  |   2 A$string$1614      0D62 GR
  2 A$string$1615      0D64 GR  |   2 A$string$1616      0D66 GR
  2 A$string$1617      0D68 GR  |   2 A$string$1618      0D6B GR
  2 A$string$1619      0D6D GR  |   2 A$string$162       00DA GR
  2 A$string$1620      0D6F GR  |   2 A$string$1621      0D71 GR
  2 A$string$1622      0D73 GR  |   2 A$string$1623      0D75 GR
  2 A$string$1625      0D77 GR  |   2 A$string$1626      0D79 GR
  2 A$string$1627      0D7B GR  |   2 A$string$1628      0D7D GR
  2 A$string$163       00DC GR  |   2 A$string$1630      0D7F GR
  2 A$string$1631      0D81 GR  |   2 A$string$1632      0D83 GR
  2 A$string$1634      0D85 GR  |   2 A$string$1635      0D87 GR
  2 A$string$1636      0D89 GR  |   2 A$string$1637      0D8B GR
  2 A$string$1639      0D8D GR  |   2 A$string$164       00DE GR
  2 A$string$1640      0D8F GR  |   2 A$string$1641      0D91 GR
  2 A$string$1643      0D93 GR  |   2 A$string$1644      0D95 GR
  2 A$string$1645      0D97 GR  |   2 A$string$1646      0D9A GR
  2 A$string$1647      0D9C GR  |   2 A$string$165       00E1 GR
  2 A$string$1650      0D9E GR  |   2 A$string$1651      0DA0 GR
  2 A$string$1652      0DA2 GR  |   2 A$string$1653      0DA4 GR
  2 A$string$1654      0DA7 GR  |   2 A$string$1655      0DA9 GR
  2 A$string$1656      0DAB GR  |   2 A$string$1657      0DAD GR
  2 A$string$1658      0DAF GR  |   2 A$string$1659      0DB1 GR
  2 A$string$166       00E4 GR  |   2 A$string$1660      0DB3 GR
  2 A$string$1661      0DB5 GR  |   2 A$string$1662      0DB9 GR
  2 A$string$1663      0DBB GR  |   2 A$string$1664      0DBD GR
  2 A$string$1665      0DC0 GR  |   2 A$string$1667      0DC2 GR
  2 A$string$1669      0DC4 GR  |   2 A$string$167       00E6 GR
  2 A$string$1670      0DC6 GR  |   2 A$string$1671      0DCA GR
  2 A$string$1672      0DCC GR  |   2 A$string$1673      0DCE GR
  2 A$string$1674      0DD2 GR  |   2 A$string$1675      0DD4 GR
  2 A$string$1676      0DD6 GR  |   2 A$string$1677      0DD8 GR
  2 A$string$1678      0DDA GR  |   2 A$string$1679      0DDC GR
  2 A$string$1680      0DDF GR  |   2 A$string$1681      0DE1 GR
  2 A$string$1682      0DE3 GR  |   2 A$string$1683      0DE5 GR
  2 A$string$1684      0DE7 GR  |   2 A$string$1685      0DE9 GR
  2 A$string$1687      0DEB GR  |   2 A$string$1688      0DED GR
  2 A$string$1689      0DEF GR  |   2 A$string$169       00E9 GR
  2 A$string$1690      0DF1 GR  |   2 A$string$1692      0DF3 GR
  2 A$string$1693      0DF5 GR  |   2 A$string$1694      0DF7 GR
  2 A$string$1696      0DF9 GR  |   2 A$string$1697      0DFB GR
  2 A$string$1698      0DFD GR  |   2 A$string$1699      0DFF GR
  2 A$string$170       00EB GR  |   2 A$string$1701      0E01 GR
  2 A$string$1702      0E03 GR  |   2 A$string$1703      0E05 GR
  2 A$string$1705      0E07 GR  |   2 A$string$1706      0E09 GR
  2 A$string$1707      0E0B GR  |   2 A$string$1708      0E0E GR
  2 A$string$1709      0E10 GR  |   2 A$string$171       00ED GR
  2 A$string$1712      0E12 GR  |   2 A$string$1713      0E14 GR
  2 A$string$1714      0E16 GR  |   2 A$string$1715      0E1A GR
  2 A$string$1717      0E1C GR  |   2 A$string$1718      0E1E GR
  2 A$string$1719      0E20 GR  |   2 A$string$1720      0E22 GR
  2 A$string$1721      0E24 GR  |   2 A$string$1722      0E26 GR
  2 A$string$1723      0E29 GR  |   2 A$string$1725      0E2B GR
  2 A$string$1726      0E2D GR  |   2 A$string$1727      0E2F GR
  2 A$string$1728      0E31 GR  |   2 A$string$1729      0E33 GR
  2 A$string$1731      0E35 GR  |   2 A$string$1732      0E37 GR
  2 A$string$1734      0E39 GR  |   2 A$string$1735      0E3B GR
  2 A$string$1736      0E3D GR  |   2 A$string$1738      0E3F GR
  2 A$string$1739      0E42 GR  |   2 A$string$174       00F0 GR
  2 A$string$1740      0E44 GR  |   2 A$string$1741      0E46 GR
  2 A$string$1742      0E49 GR  |   2 A$string$1743      0E4C GR
  2 A$string$1744      0E4F GR  |   2 A$string$1745      0E52 GR
  2 A$string$1746      0E55 GR  |   2 A$string$1747      0E58 GR
  2 A$string$1748      0E5B GR  |   2 A$string$1749      0E5E GR
  2 A$string$175       00F3 GR  |   2 A$string$1750      0E61 GR
  2 A$string$1751      0E64 GR  |   2 A$string$1752      0E67 GR
  2 A$string$1753      0E6A GR  |   2 A$string$1754      0E6C GR
  2 A$string$1755      0E6E GR  |   2 A$string$1756      0E70 GR
  2 A$string$1757      0E73 GR  |   2 A$string$1758      0E76 GR
  2 A$string$1759      0E78 GR  |   2 A$string$176       00F6 GR
  2 A$string$1761      0E79 GR  |   2 A$string$1762      0E7B GR
  2 A$string$1763      0E7D GR  |   2 A$string$1764      0E7F GR
  2 A$string$1765      0E81 GR  |   2 A$string$1766      0E84 GR
  2 A$string$1767      0E86 GR  |   2 A$string$1768      0E88 GR
  2 A$string$1769      0E8A GR  |   2 A$string$1770      0E8C GR
  2 A$string$1772      0E8E GR  |   2 A$string$1773      0E91 GR
  2 A$string$1774      0E93 GR  |   2 A$string$1775      0E95 GR
  2 A$string$1776      0E97 GR  |   2 A$string$1777      0E99 GR
  2 A$string$1778      0E9C GR  |   2 A$string$1780      0E9E GR
  2 A$string$1781      0EA0 GR  |   2 A$string$1782      0EA3 GR
  2 A$string$1783      0EA6 GR  |   2 A$string$1784      0EA8 GR
  2 A$string$1786      0EA9 GR  |   2 A$string$1787      0EAB GR
  2 A$string$1788      0EAD GR  |   2 A$string$1789      0EAF GR
  2 A$string$179       00F9 GR  |   2 A$string$1791      0EB2 GR
  2 A$string$1792      0EB5 GR  |   2 A$string$1793      0EB7 GR
  2 A$string$1794      0EB9 GR  |   2 A$string$1795      0EBB GR
  2 A$string$1796      0EBD GR  |   2 A$string$1797      0EC1 GR
  2 A$string$1798      0EC3 GR  |   2 A$string$1799      0EC5 GR
  2 A$string$180       00FB GR  |   2 A$string$1800      0EC8 GR
  2 A$string$1801      0ECA GR  |   2 A$string$1802      0ECC GR
  2 A$string$1803      0ECE GR  |   2 A$string$1806      0ED1 GR
  2 A$string$1807      0ED3 GR  |   2 A$string$1808      0ED7 GR
  2 A$string$1809      0ED9 GR  |   2 A$string$181       00FD GR
  2 A$string$1810      0EDB GR  |   2 A$string$1811      0EDE GR
  2 A$string$1812      0EE0 GR  |   2 A$string$1813      0EE2 GR
  2 A$string$1814      0EE4 GR  |   2 A$string$1817      0EE7 GR
  2 A$string$1818      0EE9 GR  |   2 A$string$1819      0EEB GR
  2 A$string$182       00FF GR  |   2 A$string$1820      0EED GR
  2 A$string$1821      0EEF GR  |   2 A$string$1822      0EF1 GR
  2 A$string$1823      0EF3 GR  |   2 A$string$1824      0EF5 GR
  2 A$string$1825      0EF7 GR  |   2 A$string$1826      0EFB GR
  2 A$string$1827      0EFD GR  |   2 A$string$1828      0EFF GR
  2 A$string$1829      0F02 GR  |   2 A$string$183       0101 GR
  2 A$string$1831      0F04 GR  |   2 A$string$1833      0F06 GR
  2 A$string$1834      0F08 GR  |   2 A$string$1835      0F0C GR
  2 A$string$1836      0F0E GR  |   2 A$string$1837      0F10 GR
  2 A$string$1838      0F14 GR  |   2 A$string$1839      0F16 GR
  2 A$string$184       0103 GR  |   2 A$string$1840      0F18 GR
  2 A$string$1841      0F1A GR  |   2 A$string$1842      0F1C GR
  2 A$string$1843      0F1E GR  |   2 A$string$1844      0F21 GR
  2 A$string$1845      0F23 GR  |   2 A$string$1846      0F25 GR
  2 A$string$1847      0F27 GR  |   2 A$string$1848      0F29 GR
  2 A$string$1849      0F2B GR  |   2 A$string$185       0105 GR
  2 A$string$1851      0F2D GR  |   2 A$string$1852      0F2F GR
  2 A$string$1853      0F31 GR  |   2 A$string$1854      0F33 GR
  2 A$string$1856      0F35 GR  |   2 A$string$1857      0F37 GR
  2 A$string$1858      0F39 GR  |   2 A$string$186       0107 GR
  2 A$string$1860      0F3B GR  |   2 A$string$1861      0F3D GR
  2 A$string$1862      0F3F GR  |   2 A$string$1863      0F41 GR
  2 A$string$1865      0F43 GR  |   2 A$string$1866      0F45 GR
  2 A$string$1867      0F47 GR  |   2 A$string$1868      0F49 GR
  2 A$string$187       0109 GR  |   2 A$string$1870      0F4B GR
  2 A$string$1871      0F4E GR  |   2 A$string$1872      0F50 GR
  2 A$string$1873      0F52 GR  |   2 A$string$1874      0F54 GR
  2 A$string$1876      0F56 GR  |   2 A$string$1877      0F58 GR
  2 A$string$1878      0F5A GR  |   2 A$string$1879      0F5C GR
  2 A$string$188       010D GR  |   2 A$string$1880      0F5E GR
  2 A$string$1881      0F60 GR  |   2 A$string$1882      0F62 GR
  2 A$string$1884      0F64 GR  |   2 A$string$1885      0F66 GR
  2 A$string$1886      0F68 GR  |   2 A$string$1888      0F6A GR
  2 A$string$1889      0F6C GR  |   2 A$string$189       010F GR
  2 A$string$1890      0F6E GR  |   2 A$string$1892      0F70 GR
  2 A$string$1893      0F72 GR  |   2 A$string$1894      0F74 GR
  2 A$string$1895      0F76 GR  |   2 A$string$1898      0F78 GR
  2 A$string$1899      0F7A GR  |   2 A$string$190       0111 GR
  2 A$string$1900      0F7C GR  |   2 A$string$1901      0F7E GR
  2 A$string$1902      0F81 GR  |   2 A$string$1903      0F84 GR
  2 A$string$1904      0F87 GR  |   2 A$string$1905      0F89 GR
  2 A$string$1906      0F8B GR  |   2 A$string$1907      0F8D GR
  2 A$string$1908      0F90 GR  |   2 A$string$1909      0F92 GR
  2 A$string$191       0114 GR  |   2 A$string$1910      0F94 GR
  2 A$string$1911      0F96 GR  |   2 A$string$1912      0F99 GR
  2 A$string$1914      0F9B GR  |   2 A$string$1916      0F9D GR
  2 A$string$1917      0F9F GR  |   2 A$string$1918      0FA3 GR
  2 A$string$1919      0FA5 GR  |   2 A$string$1920      0FA9 GR
  2 A$string$1921      0FAB GR  |   2 A$string$1922      0FAD GR
  2 A$string$1923      0FAF GR  |   2 A$string$1924      0FB1 GR
  2 A$string$1925      0FB3 GR  |   2 A$string$1926      0FB5 GR
  2 A$string$1927      0FB8 GR  |   2 A$string$1928      0FBA GR
  2 A$string$1929      0FBC GR  |   2 A$string$193       0116 GR
  2 A$string$1930      0FBE GR  |   2 A$string$1931      0FC0 GR
  2 A$string$1933      0FC2 GR  |   2 A$string$1934      0FC4 GR
  2 A$string$1935      0FC7 GR  |   2 A$string$1936      0FC9 GR
  2 A$string$1937      0FCC GR  |   2 A$string$1938      0FCE GR
  2 A$string$1940      0FD0 GR  |   2 A$string$1941      0FD3 GR
  2 A$string$1942      0FD5 GR  |   2 A$string$1944      0FD7 GR
  2 A$string$1945      0FD9 GR  |   2 A$string$1946      0FDB GR
  2 A$string$1947      0FDD GR  |   2 A$string$1949      0FDF GR
  2 A$string$195       0118 GR  |   2 A$string$1950      0FE1 GR
  2 A$string$1951      0FE3 GR  |   2 A$string$1952      0FE5 GR
  2 A$string$1954      0FE7 GR  |   2 A$string$1955      0FE9 GR
  2 A$string$1956      0FEB GR  |   2 A$string$1957      0FED GR
  2 A$string$1958      0FEF GR  |   2 A$string$196       011A GR
  2 A$string$1960      0FF1 GR  |   2 A$string$1961      0FF3 GR
  2 A$string$1962      0FF5 GR  |   2 A$string$1963      0FF7 GR
  2 A$string$1964      0FF9 GR  |   2 A$string$1965      0FFB GR
  2 A$string$1966      0FFD GR  |   2 A$string$1968      0FFF GR
  2 A$string$1969      1001 GR  |   2 A$string$197       011E GR
  2 A$string$1970      1003 GR  |   2 A$string$1972      1005 GR
  2 A$string$1973      1007 GR  |   2 A$string$1974      1009 GR
  2 A$string$1976      100B GR  |   2 A$string$1977      100D GR
  2 A$string$1978      100F GR  |   2 A$string$1979      1011 GR
  2 A$string$198       0120 GR  |   2 A$string$1982      1013 GR
  2 A$string$1983      1015 GR  |   2 A$string$1984      1017 GR
  2 A$string$1985      1019 GR  |   2 A$string$1986      101C GR
  2 A$string$1987      101F GR  |   2 A$string$1988      1022 GR
  2 A$string$1989      1024 GR  |   2 A$string$199       0122 GR
  2 A$string$1990      1026 GR  |   2 A$string$1991      1028 GR
  2 A$string$1992      102A GR  |   2 A$string$1993      102C GR
  2 A$string$1994      102E GR  |   2 A$string$1995      1032 GR
  2 A$string$1996      1034 GR  |   2 A$string$1997      1036 GR
  2 A$string$1998      1039 GR  |   2 A$string$200       0126 GR
  2 A$string$2000      103B GR  |   2 A$string$2002      103D GR
  2 A$string$2003      103F GR  |   2 A$string$2004      1043 GR
  2 A$string$2005      1045 GR  |   2 A$string$2006      1047 GR
  2 A$string$2007      104B GR  |   2 A$string$2008      104D GR
  2 A$string$2009      104F GR  |   2 A$string$201       0128 GR
  2 A$string$2010      1051 GR  |   2 A$string$2011      1053 GR
  2 A$string$2012      1055 GR  |   2 A$string$2013      1058 GR
  2 A$string$2014      105A GR  |   2 A$string$2015      105C GR
  2 A$string$2016      105E GR  |   2 A$string$2017      1060 GR
  2 A$string$2018      1062 GR  |   2 A$string$202       012A GR
  2 A$string$2020      1064 GR  |   2 A$string$2021      1066 GR
  2 A$string$2022      1068 GR  |   2 A$string$2023      106A GR
  2 A$string$2025      106C GR  |   2 A$string$2026      106E GR
  2 A$string$2027      1070 GR  |   2 A$string$2029      1072 GR
  2 A$string$203       012C GR  |   2 A$string$2030      1074 GR
  2 A$string$2031      1076 GR  |   2 A$string$2032      1078 GR
  2 A$string$2034      107A GR  |   2 A$string$2035      107C GR
  2 A$string$2036      107E GR  |   2 A$string$2037      1080 GR
  2 A$string$2039      1082 GR  |   2 A$string$204       012E GR
  2 A$string$2040      1084 GR  |   2 A$string$2041      1087 GR
  2 A$string$2042      1089 GR  |   2 A$string$2043      108C GR
  2 A$string$2044      108E GR  |   2 A$string$2046      1090 GR
  2 A$string$2047      1093 GR  |   2 A$string$2048      1095 GR
  2 A$string$205       0130 GR  |   2 A$string$2050      1097 GR
  2 A$string$2051      1099 GR  |   2 A$string$2052      109B GR
  2 A$string$2054      109D GR  |   2 A$string$2055      109F GR
  2 A$string$2056      10A1 GR  |   2 A$string$2058      10A3 GR
  2 A$string$2059      10A5 GR  |   2 A$string$206       0133 GR
  2 A$string$2060      10A7 GR  |   2 A$string$2061      10A9 GR
  2 A$string$2064      10AB GR  |   2 A$string$2065      10AD GR
  2 A$string$2066      10AF GR  |   2 A$string$2067      10B1 GR
  2 A$string$2068      10B4 GR  |   2 A$string$2069      10B6 GR
  2 A$string$207       0135 GR  |   2 A$string$2070      10B8 GR
  2 A$string$2071      10BA GR  |   2 A$string$2072      10BC GR
  2 A$string$2073      10BE GR  |   2 A$string$2074      10C0 GR
  2 A$string$2075      10C3 GR  |   2 A$string$2076      10C5 GR
  2 A$string$2077      10C7 GR  |   2 A$string$2078      10C9 GR
  2 A$string$2079      10CC GR  |   2 A$string$208       0137 GR
  2 A$string$2081      10CE GR  |   2 A$string$2083      10D0 GR
  2 A$string$2084      10D2 GR  |   2 A$string$2085      10D6 GR
  2 A$string$2086      10D8 GR  |   2 A$string$2087      10DC GR
  2 A$string$2088      10DE GR  |   2 A$string$2089      10E0 GR
  2 A$string$209       0139 GR  |   2 A$string$2090      10E2 GR
  2 A$string$2091      10E4 GR  |   2 A$string$2092      10E6 GR
  2 A$string$2093      10E8 GR  |   2 A$string$2094      10EB GR
  2 A$string$2095      10ED GR  |   2 A$string$2096      10EF GR
  2 A$string$2097      10F1 GR  |   2 A$string$2098      10F3 GR
  2 A$string$210       013B GR  |   2 A$string$2100      10F5 GR
  2 A$string$2101      10F7 GR  |   2 A$string$2102      10FA GR
  2 A$string$2103      10FC GR  |   2 A$string$2104      10FF GR
  2 A$string$2105      1101 GR  |   2 A$string$2106      1103 GR
  2 A$string$2107      1106 GR  |   2 A$string$2108      1108 GR
  2 A$string$2109      110A GR  |   2 A$string$211       013D GR
  2 A$string$2110      110C GR  |   2 A$string$2111      110E GR
  2 A$string$2112      1110 GR  |   2 A$string$2113      1112 GR
  2 A$string$2114      1114 GR  |   2 A$string$2115      1116 GR
  2 A$string$2116      1118 GR  |   2 A$string$2118      111B GR
  2 A$string$2119      111D GR  |   2 A$string$2120      111F GR
  2 A$string$2121      1121 GR  |   2 A$string$2122      1123 GR
  2 A$string$2123      1125 GR  |   2 A$string$2124      1127 GR
  2 A$string$2125      1129 GR  |   2 A$string$2126      112B GR
  2 A$string$2127      112D GR  |   2 A$string$2128      112F GR
  2 A$string$2129      1131 GR  |   2 A$string$213       013F GR
  2 A$string$2130      1133 GR  |   2 A$string$2131      1135 GR
  2 A$string$2132      1137 GR  |   2 A$string$2133      1139 GR
  2 A$string$2134      113B GR  |   2 A$string$2135      113D GR
  2 A$string$2136      113F GR  |   2 A$string$2138      1141 GR
  2 A$string$2139      1144 GR  |   2 A$string$214       0141 GR
  2 A$string$2140      1146 GR  |   2 A$string$2141      1148 GR
  2 A$string$2143      114A GR  |   2 A$string$2144      114C GR
  2 A$string$2145      114E GR  |   2 A$string$2147      1150 GR
  2 A$string$2148      1152 GR  |   2 A$string$2149      1154 GR
  2 A$string$215       0143 GR  |   2 A$string$2150      1156 GR
  2 A$string$2152      1158 GR  |   2 A$string$2153      115A GR
  2 A$string$2154      115C GR  |   2 A$string$2156      115E GR
  2 A$string$2157      1160 GR  |   2 A$string$2158      1162 GR
  2 A$string$2159      1164 GR  |   2 A$string$216       0145 GR
  2 A$string$2162      1166 GR  |   2 A$string$2163      1168 GR
  2 A$string$2164      116A GR  |   2 A$string$2165      116C GR
  2 A$string$2166      116F GR  |   2 A$string$2167      1171 GR
  2 A$string$2168      1173 GR  |   2 A$string$2169      1175 GR
  2 A$string$2170      1177 GR  |   2 A$string$2171      1179 GR
  2 A$string$2172      117B GR  |   2 A$string$2173      117F GR
  2 A$string$2174      1181 GR  |   2 A$string$2175      1183 GR
  2 A$string$2176      1186 GR  |   2 A$string$2178      1188 GR
  2 A$string$218       0147 GR  |   2 A$string$2180      118A GR
  2 A$string$2181      118C GR  |   2 A$string$2182      1190 GR
  2 A$string$2183      1192 GR  |   2 A$string$2184      1194 GR
  2 A$string$2185      1198 GR  |   2 A$string$2186      119A GR
  2 A$string$2187      119C GR  |   2 A$string$2188      119E GR
  2 A$string$2189      11A0 GR  |   2 A$string$219       0149 GR
  2 A$string$2190      11A2 GR  |   2 A$string$2191      11A5 GR
  2 A$string$2192      11A7 GR  |   2 A$string$2193      11A9 GR
  2 A$string$2194      11AB GR  |   2 A$string$2195      11AD GR
  2 A$string$2196      11AF GR  |   2 A$string$2198      11B1 GR
  2 A$string$2199      11B4 GR  |   2 A$string$220       014B GR
  2 A$string$2200      11B6 GR  |   2 A$string$2201      11B8 GR
  2 A$string$2203      11BA GR  |   2 A$string$2204      11BC GR
  2 A$string$2205      11BE GR  |   2 A$string$2207      11C0 GR
  2 A$string$2208      11C2 GR  |   2 A$string$2209      11C4 GR
  2 A$string$2210      11C6 GR  |   2 A$string$2211      11C8 GR
  2 A$string$2212      11CA GR  |   2 A$string$2213      11CC GR
  2 A$string$2215      11CE GR  |   2 A$string$2216      11D0 GR
  2 A$string$2217      11D2 GR  |   2 A$string$2218      11D4 GR
  2 A$string$2219      11D6 GR  |   2 A$string$222       014D GR
  2 A$string$2220      11D8 GR  |   2 A$string$2221      11DA GR
  2 A$string$2222      11DC GR  |   2 A$string$2224      11DE GR
  2 A$string$2225      11E0 GR  |   2 A$string$2226      11E3 GR
  2 A$string$2227      11E5 GR  |   2 A$string$2228      11E8 GR
  2 A$string$2229      11EA GR  |   2 A$string$223       014F GR
  2 A$string$2230      11ED GR  |   2 A$string$2231      11EF GR
  2 A$string$2232      11F1 GR  |   2 A$string$2233      11F3 GR
  2 A$string$2234      11F5 GR  |   2 A$string$2235      11F7 GR
  2 A$string$2236      11F9 GR  |   2 A$string$2237      11FB GR
  2 A$string$2238      11FD GR  |   2 A$string$224       0151 GR
  2 A$string$2240      1200 GR  |   2 A$string$2241      1202 GR
  2 A$string$2242      1204 GR  |   2 A$string$2243      1206 GR
  2 A$string$2244      1208 GR  |   2 A$string$2245      120A GR
  2 A$string$2246      120C GR  |   2 A$string$2247      120E GR
  2 A$string$2248      1210 GR  |   2 A$string$2249      1212 GR
  2 A$string$225       0153 GR  |   2 A$string$2250      1214 GR
  2 A$string$2251      1216 GR  |   2 A$string$2252      1218 GR
  2 A$string$2253      121A GR  |   2 A$string$2254      121B GR
  2 A$string$2256      121D GR  |   2 A$string$2257      121F GR
  2 A$string$2258      1221 GR  |   2 A$string$2259      1223 GR
  2 A$string$2260      1225 GR  |   2 A$string$2263      1227 GR
  2 A$string$2264      1229 GR  |   2 A$string$2265      122B GR
  2 A$string$2266      122D GR  |   2 A$string$2267      1230 GR
  2 A$string$2268      1232 GR  |   2 A$string$2269      1234 GR
  2 A$string$227       0155 GR  |   2 A$string$2270      1236 GR
  2 A$string$2271      1238 GR  |   2 A$string$2272      123A GR
  2 A$string$2273      123C GR  |   2 A$string$2274      123F GR
  2 A$string$2275      1241 GR  |   2 A$string$2276      1243 GR
  2 A$string$2277      1245 GR  |   2 A$string$2278      1248 GR
  2 A$string$228       0157 GR  |   2 A$string$2280      124A GR
  2 A$string$2282      124C GR  |   2 A$string$2283      124E GR
  2 A$string$2284      1252 GR  |   2 A$string$2285      1254 GR
  2 A$string$2286      1258 GR  |   2 A$string$2287      125A GR
  2 A$string$2288      125C GR  |   2 A$string$2289      125E GR
  2 A$string$229       0159 GR  |   2 A$string$2290      1260 GR
  2 A$string$2291      1262 GR  |   2 A$string$2292      1264 GR
  2 A$string$2293      1267 GR  |   2 A$string$2294      1269 GR
  2 A$string$2295      126B GR  |   2 A$string$2296      126D GR
  2 A$string$2297      126F GR  |   2 A$string$2299      1271 GR
  2 A$string$2300      1273 GR  |   2 A$string$2301      1276 GR
  2 A$string$2302      1278 GR  |   2 A$string$2303      127B GR
  2 A$string$2304      127D GR  |   2 A$string$2305      1280 GR
  2 A$string$2306      1282 GR  |   2 A$string$2307      1284 GR
  2 A$string$2308      1286 GR  |   2 A$string$2309      1288 GR
  2 A$string$231       015B GR  |   2 A$string$2310      128B GR
  2 A$string$2311      128E GR  |   2 A$string$2312      1290 GR
  2 A$string$2313      1292 GR  |   2 A$string$2314      1294 GR
  2 A$string$2315      1296 GR  |   2 A$string$2316      1298 GR
  2 A$string$2317      129A GR  |   2 A$string$2318      129C GR
  2 A$string$2319      129E GR  |   2 A$string$232       015D GR
  2 A$string$2321      12A1 GR  |   2 A$string$2322      12A3 GR
  2 A$string$2323      12A5 GR  |   2 A$string$2324      12A7 GR
  2 A$string$2325      12A9 GR  |   2 A$string$2326      12AB GR
  2 A$string$2327      12AD GR  |   2 A$string$2328      12AF GR
  2 A$string$2329      12B1 GR  |   2 A$string$233       015F GR
  2 A$string$2330      12B3 GR  |   2 A$string$2331      12B5 GR
  2 A$string$2332      12B7 GR  |   2 A$string$2333      12B9 GR
  2 A$string$2334      12BB GR  |   2 A$string$2335      12BD GR
  2 A$string$2336      12BF GR  |   2 A$string$2337      12C1 GR
  2 A$string$2338      12C3 GR  |   2 A$string$2339      12C5 GR
  2 A$string$234       0162 GR  |   2 A$string$2340      12C7 GR
  2 A$string$2341      12C9 GR  |   2 A$string$2343      12CB GR
  2 A$string$2344      12CD GR  |   2 A$string$2345      12D0 GR
  2 A$string$2346      12D2 GR  |   2 A$string$2347      12D5 GR
  2 A$string$2348      12D7 GR  |   2 A$string$2349      12D9 GR
  2 A$string$235       0164 GR  |   2 A$string$2350      12DC GR
  2 A$string$2351      12DE GR  |   2 A$string$2352      12E0 GR
  2 A$string$2353      12E2 GR  |   2 A$string$2354      12E4 GR
  2 A$string$2355      12E6 GR  |   2 A$string$2357      12E9 GR
  2 A$string$2358      12EB GR  |   2 A$string$2359      12ED GR
  2 A$string$2360      12EF GR  |   2 A$string$2361      12F1 GR
  2 A$string$2362      12F3 GR  |   2 A$string$2363      12F5 GR
  2 A$string$2364      12F7 GR  |   2 A$string$2365      12F9 GR
  2 A$string$2366      12FB GR  |   2 A$string$2367      12FD GR
  2 A$string$2368      12FF GR  |   2 A$string$2369      1301 GR
  2 A$string$2370      1302 GR  |   2 A$string$2372      1304 GR
  2 A$string$2373      1306 GR  |   2 A$string$2374      1308 GR
  2 A$string$2375      130A GR  |   2 A$string$2378      130C GR
  2 A$string$2379      130E GR  |   2 A$string$238       0166 GR
  2 A$string$2380      1310 GR  |   2 A$string$2381      1312 GR
  2 A$string$2382      1315 GR  |   2 A$string$2383      1317 GR
  2 A$string$2384      1319 GR  |   2 A$string$2385      131B GR
  2 A$string$2386      131E GR  |   2 A$string$2387      1320 GR
  2 A$string$2388      1322 GR  |   2 A$string$2389      1324 GR
  2 A$string$239       0168 GR  |   2 A$string$2390      1326 GR
  2 A$string$2391      132A GR  |   2 A$string$2392      132C GR
  2 A$string$2393      132E GR  |   2 A$string$2394      1331 GR
  2 A$string$2396      1333 GR  |   2 A$string$2398      1335 GR
  2 A$string$2399      1337 GR  |   2 A$string$240       016A GR
  2 A$string$2400      133B GR  |   2 A$string$2401      133D GR
  2 A$string$2402      133F GR  |   2 A$string$2403      1343 GR
  2 A$string$2404      1345 GR  |   2 A$string$2405      1347 GR
  2 A$string$2406      1349 GR  |   2 A$string$2407      134B GR
  2 A$string$2408      134D GR  |   2 A$string$2409      1350 GR
  2 A$string$241       016C GR  |   2 A$string$2410      1352 GR
  2 A$string$2411      1354 GR  |   2 A$string$2412      1356 GR
  2 A$string$2413      1358 GR  |   2 A$string$2415      135A GR
  2 A$string$2416      135D GR  |   2 A$string$2417      135F GR
  2 A$string$2419      1362 GR  |   2 A$string$242       016F GR
  2 A$string$2420      1364 GR  |   2 A$string$2421      1366 GR
  2 A$string$2423      1368 GR  |   2 A$string$2424      136A GR
  2 A$string$2425      136C GR  |   2 A$string$2427      136E GR
  2 A$string$2428      1370 GR  |   2 A$string$2429      1372 GR
  2 A$string$243       0172 GR  |   2 A$string$2431      1374 GR
  2 A$string$2432      1376 GR  |   2 A$string$2433      1378 GR
  2 A$string$2434      137A GR  |   2 A$string$2437      137C GR
  2 A$string$2438      137E GR  |   2 A$string$2439      1380 GR
  2 A$string$244       0175 GR  |   2 A$string$2440      1382 GR
  2 A$string$2441      1386 GR  |   2 A$string$2442      1388 GR
  2 A$string$2443      138A GR  |   2 A$string$2444      138D GR
  2 A$string$2445      1390 GR  |   2 A$string$2446      1392 GR
  2 A$string$2447      1395 GR  |   2 A$string$2448      1397 GR
  2 A$string$2449      1399 GR  |   2 A$string$245       0177 GR
  2 A$string$2450      139B GR  |   2 A$string$2451      139D GR
  2 A$string$2452      139F GR  |   2 A$string$2453      13A1 GR
  2 A$string$2454      13A3 GR  |   2 A$string$2455      13A6 GR
  2 A$string$2456      13A8 GR  |   2 A$string$2457      13AA GR
  2 A$string$2458      13AE GR  |   2 A$string$246       0179 GR
  2 A$string$2460      13B0 GR  |   2 A$string$2462      13B3 GR
  2 A$string$2463      13B5 GR  |   2 A$string$2464      13B9 GR
  2 A$string$2465      13BB GR  |   2 A$string$2466      13BD GR
  2 A$string$2467      13C1 GR  |   2 A$string$2468      13C3 GR
  2 A$string$2469      13C5 GR  |   2 A$string$247       017B GR
  2 A$string$2470      13C7 GR  |   2 A$string$2471      13C9 GR
  2 A$string$2472      13CB GR  |   2 A$string$2473      13CE GR
  2 A$string$2474      13D0 GR  |   2 A$string$2475      13D2 GR
  2 A$string$2476      13D4 GR  |   2 A$string$2477      13D6 GR
  2 A$string$2478      13D8 GR  |   2 A$string$248       017D GR
  2 A$string$2480      13DA GR  |   2 A$string$2481      13DC GR
  2 A$string$2482      13DE GR  |   2 A$string$2483      13E0 GR
  2 A$string$2485      13E2 GR  |   2 A$string$2486      13E4 GR
  2 A$string$2487      13E6 GR  |   2 A$string$2489      13E8 GR
  2 A$string$249       017F GR  |   2 A$string$2490      13EA GR
  2 A$string$2491      13EC GR  |   2 A$string$2492      13EE GR
  2 A$string$2494      13F0 GR  |   2 A$string$2495      13F2 GR
  2 A$string$2496      13F4 GR  |   2 A$string$2497      13F6 GR
  2 A$string$2499      13F8 GR  |   2 A$string$250       0181 GR
  2 A$string$2500      13FB GR  |   2 A$string$2501      13FD GR
  2 A$string$2502      1400 GR  |   2 A$string$2503      1402 GR
  2 A$string$2505      1404 GR  |   2 A$string$2506      1407 GR
  2 A$string$2507      1409 GR  |   2 A$string$2509      140B GR
  2 A$string$251       0183 GR  |   2 A$string$2510      140E GR
  2 A$string$2511      1410 GR  |   2 A$string$2513      1412 GR
  2 A$string$2514      1415 GR  |   2 A$string$2515      1417 GR
  2 A$string$2517      1419 GR  |   2 A$string$2518      141C GR
  2 A$string$2519      141E GR  |   2 A$string$252       0187 GR
  2 A$string$2521      1420 GR  |   2 A$string$2522      1422 GR
  2 A$string$2523      1424 GR  |   2 A$string$2525      1426 GR
  2 A$string$2526      1428 GR  |   2 A$string$2527      142A GR
  2 A$string$2529      142C GR  |   2 A$string$253       0189 GR
  2 A$string$2530      142E GR  |   2 A$string$2531      1430 GR
  2 A$string$2532      1432 GR  |   2 A$string$2535      1434 GR
  2 A$string$2536      1436 GR  |   2 A$string$2537      1438 GR
  2 A$string$2538      143A GR  |   2 A$string$2539      143E GR
  2 A$string$254       018B GR  |   2 A$string$2540      1440 GR
  2 A$string$2541      1442 GR  |   2 A$string$2542      1444 GR
  2 A$string$2543      1447 GR  |   2 A$string$2544      1449 GR
  2 A$string$2545      144C GR  |   2 A$string$2546      1450 GR
  2 A$string$2547      1452 GR  |   2 A$string$2548      1454 GR
  2 A$string$2549      1457 GR  |   2 A$string$255       018E GR
  2 A$string$2550      145A GR  |   2 A$string$2551      145C GR
  2 A$string$2552      145F GR  |   2 A$string$2553      1462 GR
  2 A$string$2554      1464 GR  |   2 A$string$2555      1466 GR
  2 A$string$2556      1468 GR  |   2 A$string$2557      146B GR
  2 A$string$2558      146D GR  |   2 A$string$2559      146F GR
  2 A$string$2560      1473 GR  |   2 A$string$2562      1475 GR
  2 A$string$2564      1478 GR  |   2 A$string$2565      147A GR
  2 A$string$2566      147E GR  |   2 A$string$2567      1480 GR
  2 A$string$2568      1482 GR  |   2 A$string$2569      1486 GR
  2 A$string$257       0190 GR  |   2 A$string$2570      1488 GR
  2 A$string$2571      148A GR  |   2 A$string$2572      148C GR
  2 A$string$2573      148E GR  |   2 A$string$2574      1490 GR
  2 A$string$2575      1493 GR  |   2 A$string$2576      1495 GR
  2 A$string$2577      1497 GR  |   2 A$string$2578      1499 GR
  2 A$string$2579      149B GR  |   2 A$string$2581      149D GR
  2 A$string$2582      14A0 GR  |   2 A$string$2583      14A2 GR
  2 A$string$2585      14A5 GR  |   2 A$string$2586      14A7 GR
  2 A$string$2587      14A9 GR  |   2 A$string$2588      14AB GR
  2 A$string$2589      14AD GR  |   2 A$string$259       0192 GR
  2 A$string$2590      14AF GR  |   2 A$string$2592      14B1 GR
  2 A$string$2594      14B3 GR  |   2 A$string$2595      14B5 GR
  2 A$string$2596      14B7 GR  |   2 A$string$2598      14B9 GR
  2 A$string$2599      14BC GR  |   2 A$string$260       0194 GR
  2 A$string$2600      14BE GR  |   2 A$string$2602      14C1 GR
  2 A$string$2603      14C3 GR  |   2 A$string$2604      14C5 GR
  2 A$string$2606      14C7 GR  |   2 A$string$2607      14C9 GR
  2 A$string$2608      14CB GR  |   2 A$string$261       0198 GR
  2 A$string$2610      14CD GR  |   2 A$string$2611      14CF GR
  2 A$string$2612      14D1 GR  |   2 A$string$2614      14D3 GR
  2 A$string$2615      14D5 GR  |   2 A$string$2616      14D7 GR
  2 A$string$2617      14D9 GR  |   2 A$string$262       019A GR
  2 A$string$2620      14DB GR  |   2 A$string$2621      14DD GR
  2 A$string$2622      14DF GR  |   2 A$string$2623      14E1 GR
  2 A$string$2624      14E3 GR  |   2 A$string$2625      14E5 GR
  2 A$string$2626      14E8 GR  |   2 A$string$2627      14EA GR
  2 A$string$2628      14ED GR  |   2 A$string$2629      14F0 GR
  2 A$string$263       019C GR  |   2 A$string$2630      14F2 GR
  2 A$string$2631      14F4 GR  |   2 A$string$2632      14F6 GR
  2 A$string$2633      14F8 GR  |   2 A$string$2634      14FC GR
  2 A$string$2635      14FE GR  |   2 A$string$2636      1500 GR
  2 A$string$2637      1503 GR  |   2 A$string$2639      1505 GR
  2 A$string$264       01A0 GR  |   2 A$string$2641      1507 GR
  2 A$string$2642      1509 GR  |   2 A$string$2643      150D GR
  2 A$string$2644      150F GR  |   2 A$string$2645      1511 GR
  2 A$string$2646      1515 GR  |   2 A$string$2647      1517 GR
  2 A$string$2648      1519 GR  |   2 A$string$2649      151B GR
  2 A$string$265       01A2 GR  |   2 A$string$2650      151D GR
  2 A$string$2651      151F GR  |   2 A$string$2652      1522 GR
  2 A$string$2653      1524 GR  |   2 A$string$2654      1526 GR
  2 A$string$2655      1528 GR  |   2 A$string$2656      152A GR
  2 A$string$2658      152C GR  |   2 A$string$2659      152F GR
  2 A$string$266       01A4 GR  |   2 A$string$2660      1531 GR
  2 A$string$2662      1534 GR  |   2 A$string$2663      1536 GR
  2 A$string$2664      1538 GR  |   2 A$string$2666      153A GR
  2 A$string$2667      153C GR  |   2 A$string$2668      153E GR
  2 A$string$267       01A6 GR  |   2 A$string$2670      1540 GR
  2 A$string$2671      1542 GR  |   2 A$string$2672      1544 GR
  2 A$string$2674      1546 GR  |   2 A$string$2675      1548 GR
  2 A$string$2676      154A GR  |   2 A$string$2677      154C GR
  2 A$string$268       01A8 GR  |   2 A$string$2680      154E GR
  2 A$string$2681      1550 GR  |   2 A$string$2682      1552 GR
  2 A$string$2683      1554 GR  |   2 A$string$2684      1557 GR
  2 A$string$2685      1559 GR  |   2 A$string$2686      155B GR
  2 A$string$2687      155D GR  |   2 A$string$2688      155F GR
  2 A$string$2689      1561 GR  |   2 A$string$269       01AA GR
  2 A$string$2690      1563 GR  |   2 A$string$2691      1567 GR
  2 A$string$2692      1569 GR  |   2 A$string$2693      156B GR
  2 A$string$2694      156E GR  |   2 A$string$2696      1570 GR
  2 A$string$2698      1572 GR  |   2 A$string$2699      1574 GR
  2 A$string$270       01AD GR  |   2 A$string$2700      1578 GR
  2 A$string$2701      157A GR  |   2 A$string$2702      157C GR
  2 A$string$2703      1580 GR  |   2 A$string$2704      1582 GR
  2 A$string$2705      1584 GR  |   2 A$string$2706      1586 GR
  2 A$string$2707      1588 GR  |   2 A$string$2708      158A GR
  2 A$string$2709      158D GR  |   2 A$string$271       01AF GR
  2 A$string$2710      158F GR  |   2 A$string$2711      1591 GR
  2 A$string$2712      1593 GR  |   2 A$string$2713      1595 GR
  2 A$string$2714      1597 GR  |   2 A$string$2716      1599 GR
  2 A$string$2717      159C GR  |   2 A$string$2718      159E GR
  2 A$string$2719      15A0 GR  |   2 A$string$272       01B1 GR
  2 A$string$2721      15A2 GR  |   2 A$string$2722      15A4 GR
  2 A$string$2723      15A6 GR  |   2 A$string$2725      15A8 GR
  2 A$string$2726      15AA GR  |   2 A$string$2727      15AC GR
  2 A$string$2728      15AE GR  |   2 A$string$2729      15B0 GR
  2 A$string$273       01B3 GR  |   2 A$string$2730      15B2 GR
  2 A$string$2731      15B4 GR  |   2 A$string$2733      15B6 GR
  2 A$string$2734      15B8 GR  |   2 A$string$2735      15BA GR
  2 A$string$2736      15BC GR  |   2 A$string$2737      15BE GR
  2 A$string$2738      15C0 GR  |   2 A$string$2739      15C2 GR
  2 A$string$274       01B5 GR  |   2 A$string$2740      15C4 GR
  2 A$string$2742      15C6 GR  |   2 A$string$2743      15C8 GR
  2 A$string$2744      15CB GR  |   2 A$string$2745      15CD GR
  2 A$string$2746      15D0 GR  |   2 A$string$2747      15D2 GR
  2 A$string$2748      15D5 GR  |   2 A$string$2749      15D7 GR
  2 A$string$275       01B7 GR  |   2 A$string$2750      15D9 GR
  2 A$string$2751      15DB GR  |   2 A$string$2752      15DD GR
  2 A$string$2753      15DF GR  |   2 A$string$2754      15E1 GR
  2 A$string$2755      15E3 GR  |   2 A$string$2756      15E5 GR
  2 A$string$2758      15E8 GR  |   2 A$string$2759      15EA GR
  2 A$string$2760      15EC GR  |   2 A$string$2761      15EE GR
  2 A$string$2762      15F0 GR  |   2 A$string$2763      15F2 GR
  2 A$string$2764      15F4 GR  |   2 A$string$2765      15F6 GR
  2 A$string$2766      15F8 GR  |   2 A$string$2767      15FA GR
  2 A$string$2768      15FC GR  |   2 A$string$2769      15FE GR
  2 A$string$277       01B9 GR  |   2 A$string$2770      1600 GR
  2 A$string$2771      1602 GR  |   2 A$string$2772      1603 GR
  2 A$string$2774      1605 GR  |   2 A$string$2775      1607 GR
  2 A$string$2776      1609 GR  |   2 A$string$2777      160B GR
  2 A$string$2778      160E GR  |   2 A$string$2779      1610 GR
  2 A$string$278       01BB GR  |   2 A$string$2780      1613 GR
  2 A$string$2781      1615 GR  |   2 A$string$2782      1618 GR
  2 A$string$2783      161B GR  |   2 A$string$2784      161E GR
  2 A$string$2785      1620 GR  |   2 A$string$2786      1622 GR
  2 A$string$2787      1624 GR  |   2 A$string$279       01BD GR
  2 A$string$2790      1626 GR  |   2 A$string$2791      1628 GR
  2 A$string$2792      162A GR  |   2 A$string$2793      162C GR
  2 A$string$2794      162E GR  |   2 A$string$2795      1630 GR
  2 A$string$2796      1632 GR  |   2 A$string$2797      1634 GR
  2 A$string$2799      1636 GR  |   2 A$string$280       01BF GR
  2 A$string$2800      1638 GR  |   2 A$string$2802      163A GR
  2 A$string$2803      163C GR  |   2 A$string$2804      163E GR
  2 A$string$2805      1640 GR  |   2 A$string$2806      1642 GR
  2 A$string$2807      1644 GR  |   2 A$string$2808      1646 GR
  2 A$string$2809      1648 GR  |   2 A$string$2810      164A GR
  2 A$string$2811      164C GR  |   2 A$string$2812      164E GR
  2 A$string$2814      1650 GR  |   2 A$string$2815      1652 GR
  2 A$string$2816      1654 GR  |   2 A$string$2818      1656 GR
  2 A$string$2819      1658 GR  |   2 A$string$282       01C1 GR
  2 A$string$2822      165A GR  |   2 A$string$2824      165C GR
  2 A$string$2825      165E GR  |   2 A$string$2826      1660 GR
  2 A$string$2828      1662 GR  |   2 A$string$2829      1664 GR
  2 A$string$283       01C3 GR  |   2 A$string$2831      1666 GR
  2 A$string$2832      1668 GR  |   2 A$string$2833      166A GR
  2 A$string$2836      166B GR  |   2 A$string$2837      166D GR
  2 A$string$2838      166F GR  |   2 A$string$2839      1671 GR
  2 A$string$284       01C5 GR  |   2 A$string$2840      1673 GR
  2 A$string$2841      1675 GR  |   2 A$string$2842      1678 GR
  2 A$string$2843      167A GR  |   2 A$string$2844      167D GR
  2 A$string$2845      167F GR  |   2 A$string$2846      1682 GR
  2 A$string$2847      1685 GR  |   2 A$string$2848      1687 GR
  2 A$string$2849      168A GR  |   2 A$string$2851      168C GR
  2 A$string$2852      168E GR  |   2 A$string$2853      1691 GR
  2 A$string$2854      1693 GR  |   2 A$string$2855      1696 GR
  2 A$string$2856      1698 GR  |   2 A$string$2857      169B GR
  2 A$string$2858      169E GR  |   2 A$string$2859      16A0 GR
  2 A$string$286       01C7 GR  |   2 A$string$2860      16A2 GR
  2 A$string$2861      16A4 GR  |   2 A$string$2862      16A6 GR
  2 A$string$2863      16A8 GR  |   2 A$string$2864      16AB GR
  2 A$string$2866      16AD GR  |   2 A$string$2867      16AF GR
  2 A$string$287       01C9 GR  |   2 A$string$2870      16B1 GR
  2 A$string$2871      16B3 GR  |   2 A$string$2872      16B5 GR
  2 A$string$2873      16B7 GR  |   2 A$string$2874      16BA GR
  2 A$string$2875      16BB GR  |   2 A$string$2876      16BD GR
  2 A$string$2877      16C0 GR  |   2 A$string$2878      16C3 GR
  2 A$string$2879      16C6 GR  |   2 A$string$288       01CB GR
  2 A$string$2880      16C8 GR  |   2 A$string$2881      16CA GR
  2 A$string$2882      16CC GR  |   2 A$string$2883      16CE GR
  2 A$string$2884      16D1 GR  |   2 A$string$2885      16D4 GR
  2 A$string$2886      16D7 GR  |   2 A$string$2887      16D8 GR
  2 A$string$2888      16DB GR  |   2 A$string$2889      16DD GR
  2 A$string$289       01CD GR  |   2 A$string$2890      16DF GR
  2 A$string$2891      16E2 GR  |   2 A$string$2892      16E4 GR
  2 A$string$2893      16E5 GR  |   2 A$string$2894      16E7 GR
  2 A$string$2895      16E9 GR  |   2 A$string$2896      16EA GR
  2 A$string$2897      16EC GR  |   2 A$string$2898      16EF GR
  2 A$string$2899      16F1 GR  |   2 A$string$2900      16F3 GR
  2 A$string$2901      16F4 GR  |   2 A$string$2902      16F6 GR
  2 A$string$2903      16F8 GR  |   2 A$string$2905      16F9 GR
  2 A$string$2906      16FC GR  |   2 A$string$2907      16FE GR
  2 A$string$2908      1700 GR  |   2 A$string$291       01CF GR
  2 A$string$292       01D1 GR  |   2 A$string$293       01D3 GR
  2 A$string$295       01D5 GR  |   2 A$string$296       01D7 GR
  2 A$string$297       01D9 GR  |   2 A$string$298       01DC GR
  2 A$string$299       01DE GR  |   2 A$string$302       01E0 GR
  2 A$string$303       01E2 GR  |   2 A$string$304       01E4 GR
  2 A$string$305       01E7 GR  |   2 A$string$306       01E9 GR
  2 A$string$307       01EC GR  |   2 A$string$308       01F0 GR
  2 A$string$309       01F3 GR  |   2 A$string$310       01F6 GR
  2 A$string$312       01F8 GR  |   2 A$string$313       01FB GR
  2 A$string$314       01FF GR  |   2 A$string$316       0201 GR
  2 A$string$317       0204 GR  |   2 A$string$318       0206 GR
  2 A$string$319       020A GR  |   2 A$string$320       020C GR
  2 A$string$321       020F GR  |   2 A$string$323       0211 GR
  2 A$string$324       0213 GR  |   2 A$string$325       0215 GR
  2 A$string$326       0217 GR  |   2 A$string$327       021B GR
  2 A$string$329       021F GR  |   2 A$string$331       0221 GR
  2 A$string$332       0224 GR  |   2 A$string$333       0228 GR
  2 A$string$334       022C GR  |   2 A$string$335       022E GR
  2 A$string$336       0231 GR  |   2 A$string$338       0233 GR
  2 A$string$339       0236 GR  |   2 A$string$340       0238 GR
  2 A$string$341       023C GR  |   2 A$string$342       023E GR
  2 A$string$343       0241 GR  |   2 A$string$345       0243 GR
  2 A$string$346       0246 GR  |   2 A$string$347       0248 GR
  2 A$string$348       024C GR  |   2 A$string$349       024E GR
  2 A$string$350       0251 GR  |   2 A$string$352       0253 GR
  2 A$string$353       0255 GR  |   2 A$string$354       0257 GR
  2 A$string$355       0259 GR  |   2 A$string$356       025B GR
  2 A$string$358       025F GR  |   2 A$string$360       0261 GR
  2 A$string$361       0263 GR  |   2 A$string$362       0265 GR
  2 A$string$363       0268 GR  |   2 A$string$364       026C GR
  2 A$string$365       0270 GR  |   2 A$string$366       0273 GR
  2 A$string$367       0276 GR  |   2 A$string$369       0278 GR
  2 A$string$370       027B GR  |   2 A$string$371       027F GR
  2 A$string$373       0281 GR  |   2 A$string$374       0284 GR
  2 A$string$375       0286 GR  |   2 A$string$376       0289 GR
  2 A$string$377       028B GR  |   2 A$string$378       028E GR
  2 A$string$380       0290 GR  |   2 A$string$381       0292 GR
  2 A$string$382       0294 GR  |   2 A$string$383       0296 GR
  2 A$string$384       0298 GR  |   2 A$string$386       029C GR
  2 A$string$388       029E GR  |   2 A$string$389       02A1 GR
  2 A$string$390       02A3 GR  |   2 A$string$391       02A6 GR
  2 A$string$392       02A8 GR  |   2 A$string$393       02AB GR
  2 A$string$395       02AD GR  |   2 A$string$396       02B0 GR
  2 A$string$397       02B2 GR  |   2 A$string$398       02B5 GR
  2 A$string$399       02B7 GR  |   2 A$string$400       02BA GR
  2 A$string$402       02BC GR  |   2 A$string$403       02BF GR
  2 A$string$404       02C1 GR  |   2 A$string$405       02C3 GR
  2 A$string$406       02C5 GR  |   2 A$string$407       02C8 GR
  2 A$string$409       02CA GR  |   2 A$string$410       02CC GR
  2 A$string$411       02CE GR  |   2 A$string$412       02D0 GR
  2 A$string$413       02D2 GR  |   2 A$string$415       02D6 GR
  2 A$string$416       02D8 GR  |   2 A$string$417       02DA GR
  2 A$string$418       02DC GR  |   2 A$string$419       02DE GR
  2 A$string$42        0000 GR  |   2 A$string$420       02E0 GR
  2 A$string$421       02E2 GR  |   2 A$string$422       02E4 GR
  2 A$string$423       02E6 GR  |   2 A$string$425       02E8 GR
  2 A$string$426       02EB GR  |   2 A$string$427       02ED GR
  2 A$string$428       02F0 GR  |   2 A$string$429       02F2 GR
  2 A$string$43        0002 GR  |   2 A$string$430       02F5 GR
  2 A$string$431       02F7 GR  |   2 A$string$433       02F9 GR
  2 A$string$434       02FD GR  |   2 A$string$436       0300 GR
  2 A$string$437       0303 GR  |   2 A$string$438       0305 GR
  2 A$string$439       0309 GR  |   2 A$string$44        0004 GR
  2 A$string$440       030C GR  |   2 A$string$441       030F GR
  2 A$string$442       0311 GR  |   2 A$string$444       0314 GR
  2 A$string$445       0317 GR  |   2 A$string$446       031B GR
  2 A$string$447       031F GR  |   2 A$string$448       0321 GR
  2 A$string$449       0324 GR  |   2 A$string$45        0006 GR
  2 A$string$450       0326 GR  |   2 A$string$452       0329 GR
  2 A$string$453       032D GR  |   2 A$string$455       0330 GR
  2 A$string$456       0334 GR  |   2 A$string$457       0337 GR
  2 A$string$458       033A GR  |   2 A$string$459       033C GR
  2 A$string$461       033F GR  |   2 A$string$462       0342 GR
  2 A$string$463       0345 GR  |   2 A$string$464       0347 GR
  2 A$string$466       034A GR  |   2 A$string$467       034C GR
  2 A$string$468       0350 GR  |   2 A$string$469       0354 GR
  2 A$string$47        0008 GR  |   2 A$string$470       0357 GR
  2 A$string$471       0359 GR  |   2 A$string$473       035C GR
  2 A$string$474       035F GR  |   2 A$string$475       0361 GR
  2 A$string$476       0363 GR  |   2 A$string$477       0365 GR
  2 A$string$479       0368 GR  |   2 A$string$48        000A GR
  2 A$string$480       036A GR  |   2 A$string$481       036E GR
  2 A$string$482       0372 GR  |   2 A$string$483       0375 GR
  2 A$string$484       0377 GR  |   2 A$string$486       037A GR
  2 A$string$487       037C GR  |   2 A$string$488       0380 GR
  2 A$string$489       0384 GR  |   2 A$string$49        000C GR
  2 A$string$490       0387 GR  |   2 A$string$491       0389 GR
  2 A$string$494       038C GR  |   2 A$string$495       038E GR
  2 A$string$496       0391 GR  |   2 A$string$497       0393 GR
  2 A$string$498       0395 GR  |   2 A$string$499       0398 GR
  2 A$string$50        000E GR  |   2 A$string$500       039A GR
  2 A$string$503       039C GR  |   2 A$string$504       039E GR
  2 A$string$505       03A1 GR  |   2 A$string$506       03A2 GR
  2 A$string$507       03A4 GR  |   2 A$string$508       03A7 GR
  2 A$string$509       03AA GR  |   2 A$string$51        0010 GR
  2 A$string$510       03AD GR  |   2 A$string$511       03AF GR
  2 A$string$512       03B1 GR  |   2 A$string$513       03B3 GR
  2 A$string$514       03B5 GR  |   2 A$string$515       03B8 GR
  2 A$string$516       03BB GR  |   2 A$string$517       03BE GR
  2 A$string$518       03BF GR  |   2 A$string$519       03C2 GR
  2 A$string$52        0012 GR  |   2 A$string$520       03C4 GR
  2 A$string$521       03C7 GR  |   2 A$string$522       03C9 GR
  2 A$string$525       03CA GR  |   2 A$string$526       03CC GR
  2 A$string$527       03CE GR  |   2 A$string$528       03D0 GR
  2 A$string$529       03D3 GR  |   2 A$string$530       03D4 GR
  2 A$string$531       03D6 GR  |   2 A$string$532       03D9 GR
  2 A$string$533       03DC GR  |   2 A$string$534       03DF GR
  2 A$string$535       03E1 GR  |   2 A$string$536       03E3 GR
  2 A$string$537       03E5 GR  |   2 A$string$538       03E7 GR
  2 A$string$539       03EA GR  |   2 A$string$54        0014 GR
  2 A$string$540       03ED GR  |   2 A$string$541       03F0 GR
  2 A$string$542       03F1 GR  |   2 A$string$543       03F4 GR
  2 A$string$544       03F6 GR  |   2 A$string$545       03F8 GR
  2 A$string$546       03FB GR  |   2 A$string$547       03FD GR
  2 A$string$548       03FE GR  |   2 A$string$549       0400 GR
  2 A$string$55        0016 GR  |   2 A$string$550       0402 GR
  2 A$string$551       0403 GR  |   2 A$string$552       0405 GR
  2 A$string$553       0408 GR  |   2 A$string$554       040A GR
  2 A$string$556       040C GR  |   2 A$string$557       040E GR
  2 A$string$56        0018 GR  |   2 A$string$560       040F GR
  2 A$string$561       0411 GR  |   2 A$string$562       0413 GR
  2 A$string$563       0415 GR  |   2 A$string$564       0419 GR
  2 A$string$565       041B GR  |   2 A$string$566       041D GR
  2 A$string$567       041F GR  |   2 A$string$568       0422 GR
  2 A$string$569       0424 GR  |   2 A$string$570       0427 GR
  2 A$string$571       042A GR  |   2 A$string$572       042C GR
  2 A$string$573       042E GR  |   2 A$string$574       0430 GR
  2 A$string$575       0433 GR  |   2 A$string$576       0435 GR
  2 A$string$577       0437 GR  |   2 A$string$578       043B GR
  2 A$string$580       043D GR  |   2 A$string$582       0440 GR
  2 A$string$583       0442 GR  |   2 A$string$584       0446 GR
  2 A$string$585       0448 GR  |   2 A$string$586       044A GR
  2 A$string$587       044E GR  |   2 A$string$588       0450 GR
  2 A$string$589       0452 GR  |   2 A$string$59        001A GR
  2 A$string$590       0454 GR  |   2 A$string$591       0456 GR
  2 A$string$592       0458 GR  |   2 A$string$593       045B GR
  2 A$string$594       045D GR  |   2 A$string$595       045F GR
  2 A$string$596       0461 GR  |   2 A$string$597       0463 GR
  2 A$string$599       0465 GR  |   2 A$string$60        001C GR
  2 A$string$600       0468 GR  |   2 A$string$601       046A GR
  2 A$string$603       046D GR  |   2 A$string$604       046F GR
  2 A$string$605       0471 GR  |   2 A$string$607       0473 GR
  2 A$string$608       0475 GR  |   2 A$string$609       0477 GR
  2 A$string$61        001E GR  |   2 A$string$611       0479 GR
  2 A$string$612       047B GR  |   2 A$string$613       047D GR
  2 A$string$615       047F GR  |   2 A$string$616       0481 GR
  2 A$string$617       0483 GR  |   2 A$string$618       0485 GR
  2 A$string$62        0021 GR  |   2 A$string$621       0487 GR
  2 A$string$622       0489 GR  |   2 A$string$623       048B GR
  2 A$string$624       048E GR  |   2 A$string$625       0491 GR
  2 A$string$626       0493 GR  |   2 A$string$627       0495 GR
  2 A$string$628       0497 GR  |   2 A$string$629       049B GR
  2 A$string$63        0023 GR  |   2 A$string$630       049F GR
  2 A$string$632       04A3 GR  |   2 A$string$633       04A6 GR
  2 A$string$634       04A8 GR  |   2 A$string$636       04AB GR
  2 A$string$637       04AE GR  |   2 A$string$638       04B2 GR
  2 A$string$639       04B6 GR  |   2 A$string$64        0025 GR
  2 A$string$641       04BA GR  |   2 A$string$642       04BC GR
  2 A$string$643       04BF GR  |   2 A$string$644       04C3 GR
  2 A$string$645       04C7 GR  |   2 A$string$646       04CA GR
  2 A$string$647       04CC GR  |   2 A$string$648       04CE GR
  2 A$string$649       04D0 GR  |   2 A$string$65        0026 GR
  2 A$string$650       04D3 GR  |   2 A$string$652       04D7 GR
  2 A$string$653       04D9 GR  |   2 A$string$654       04DC GR
  2 A$string$655       04DE GR  |   2 A$string$656       04E0 GR
  2 A$string$657       04E2 GR  |   2 A$string$658       04E4 GR
  2 A$string$659       04E6 GR  |   2 A$string$66        0027 GR
  2 A$string$660       04E8 GR  |   2 A$string$661       04EB GR
  2 A$string$663       04ED GR  |   2 A$string$664       04EF GR
  2 A$string$665       04F2 GR  |   2 A$string$667       04F6 GR
  2 A$string$668       04F9 GR  |   2 A$string$67        0028 GR
  2 A$string$670       04FD GR  |   2 A$string$671       04FF GR
  2 A$string$672       0502 GR  |   2 A$string$674       0506 GR
  2 A$string$675       0509 GR  |   2 A$string$677       050D GR
  2 A$string$678       050F GR  |   2 A$string$679       0511 GR
  2 A$string$68        002A GR  |   2 A$string$681       0515 GR
  2 A$string$682       0517 GR  |   2 A$string$684       0519 GR
  2 A$string$685       051B GR  |   2 A$string$686       051D GR
  2 A$string$687       0520 GR  |   2 A$string$688       0524 GR
  2 A$string$69        002C GR  |   2 A$string$690       0528 GR
  2 A$string$691       052A GR  |   2 A$string$692       052E GR
  2 A$string$694       0532 GR  |   2 A$string$695       0534 GR
  2 A$string$696       0537 GR  |   2 A$string$697       0539 GR
  2 A$string$698       053B GR  |   2 A$string$699       053D GR
  2 A$string$70        0030 GR  |   2 A$string$700       053F GR
  2 A$string$701       0541 GR  |   2 A$string$702       0544 GR
  2 A$string$703       0548 GR  |   2 A$string$704       054B GR
  2 A$string$705       054D GR  |   2 A$string$706       0551 GR
  2 A$string$708       0555 GR  |   2 A$string$709       0557 GR
  2 A$string$71        0033 GR  |   2 A$string$710       055A GR
  2 A$string$711       055C GR  |   2 A$string$712       055E GR
  2 A$string$713       0560 GR  |   2 A$string$714       0562 GR
  2 A$string$715       0564 GR  |   2 A$string$716       0566 GR
  2 A$string$717       0569 GR  |   2 A$string$719       056D GR
  2 A$string$72        0036 GR  |   2 A$string$720       056F GR
  2 A$string$721       0572 GR  |   2 A$string$722       0574 GR
  2 A$string$723       0576 GR  |   2 A$string$724       0578 GR
  2 A$string$725       057A GR  |   2 A$string$726       057C GR
  2 A$string$727       057E GR  |   2 A$string$728       0581 GR
  2 A$string$730       0583 GR  |   2 A$string$731       0585 GR
  2 A$string$732       0587 GR  |   2 A$string$734       058B GR
  2 A$string$736       058D GR  |   2 A$string$737       058F GR
  2 A$string$738       0593 GR  |   2 A$string$739       0597 GR
  2 A$string$74        0038 GR  |   2 A$string$741       059B GR
  2 A$string$742       059D GR  |   2 A$string$743       05A0 GR
  2 A$string$745       05A4 GR  |   2 A$string$746       05A6 GR
  2 A$string$747       05A9 GR  |   2 A$string$748       05AB GR
  2 A$string$749       05AD GR  |   2 A$string$750       05AF GR
  2 A$string$751       05B1 GR  |   2 A$string$752       05B3 GR
  2 A$string$753       05B5 GR  |   2 A$string$754       05B8 GR
  2 A$string$755       05BA GR  |   2 A$string$756       05BC GR
  2 A$string$757       05BF GR  |   2 A$string$759       05C3 GR
  2 A$string$760       05C5 GR  |   2 A$string$761       05C8 GR
  2 A$string$762       05CA GR  |   2 A$string$763       05CC GR
  2 A$string$764       05CE GR  |   2 A$string$765       05D0 GR
  2 A$string$766       05D2 GR  |   2 A$string$767       05D4 GR
  2 A$string$768       05D7 GR  |   2 A$string$77        003A GR
  2 A$string$770       05D9 GR  |   2 A$string$771       05DB GR
  2 A$string$772       05DE GR  |   2 A$string$773       05E2 GR
  2 A$string$775       05E6 GR  |   2 A$string$776       05E8 GR
  2 A$string$777       05EA GR  |   2 A$string$779       05EE GR
  2 A$string$78        003C GR  |   2 A$string$780       05F0 GR
  2 A$string$782       05F2 GR  |   2 A$string$783       05F4 GR
  2 A$string$784       05F6 GR  |   2 A$string$785       05F9 GR
  2 A$string$786       05FD GR  |   2 A$string$788       0601 GR
  2 A$string$789       0603 GR  |   2 A$string$79        003E GR
  2 A$string$790       0607 GR  |   2 A$string$792       060B GR
  2 A$string$793       060D GR  |   2 A$string$794       0610 GR
  2 A$string$795       0612 GR  |   2 A$string$796       0614 GR
  2 A$string$797       0616 GR  |   2 A$string$798       0618 GR
  2 A$string$799       061A GR  |   2 A$string$80        0040 GR
  2 A$string$800       061D GR  |   2 A$string$801       0621 GR
  2 A$string$802       0624 GR  |   2 A$string$803       0626 GR
  2 A$string$804       062A GR  |   2 A$string$806       062E GR
  2 A$string$807       0630 GR  |   2 A$string$808       0633 GR
  2 A$string$809       0635 GR  |   2 A$string$81        0042 GR
  2 A$string$810       0637 GR  |   2 A$string$811       0639 GR
  2 A$string$812       063B GR  |   2 A$string$813       063D GR
  2 A$string$814       063F GR  |   2 A$string$815       0642 GR
  2 A$string$817       0646 GR  |   2 A$string$818       0648 GR
  2 A$string$819       064B GR  |   2 A$string$820       064D GR
  2 A$string$821       064F GR  |   2 A$string$822       0651 GR
  2 A$string$823       0653 GR  |   2 A$string$824       0655 GR
  2 A$string$825       0657 GR  |   2 A$string$826       065A GR
  2 A$string$828       065C GR  |   2 A$string$829       065E GR
  2 A$string$83        0044 GR  |   2 A$string$830       0660 GR
  2 A$string$832       0664 GR  |   2 A$string$834       0666 GR
  2 A$string$835       0668 GR  |   2 A$string$836       066C GR
  2 A$string$837       0670 GR  |   2 A$string$839       0674 GR
  2 A$string$840       0676 GR  |   2 A$string$842       067A GR
  2 A$string$843       067C GR  |   2 A$string$844       067F GR
  2 A$string$845       0681 GR  |   2 A$string$846       0683 GR
  2 A$string$847       0685 GR  |   2 A$string$848       0687 GR
  2 A$string$849       0689 GR  |   2 A$string$85        0046 GR
  2 A$string$850       068B GR  |   2 A$string$851       068E GR
  2 A$string$852       0690 GR  |   2 A$string$853       0692 GR
  2 A$string$855       0696 GR  |   2 A$string$856       0698 GR
  2 A$string$857       069B GR  |   2 A$string$858       069D GR
  2 A$string$859       069F GR  |   2 A$string$86        0048 GR
  2 A$string$860       06A1 GR  |   2 A$string$861       06A3 GR
  2 A$string$862       06A5 GR  |   2 A$string$863       06A7 GR
  2 A$string$864       06AA GR  |   2 A$string$866       06AC GR
  2 A$string$867       06AE GR  |   2 A$string$868       06B2 GR
  2 A$string$869       06B5 GR  |   2 A$string$87        004A GR
  2 A$string$870       06B9 GR  |   2 A$string$871       06BD GR
  2 A$string$872       06BF GR  |   2 A$string$873       06C1 GR
  2 A$string$875       06C5 GR  |   2 A$string$876       06C7 GR
  2 A$string$878       06C9 GR  |   2 A$string$879       06CB GR
  2 A$string$88        004C GR  |   2 A$string$880       06CD GR
  2 A$string$881       06CF GR  |   2 A$string$882       06D2 GR
  2 A$string$883       06D6 GR  |   2 A$string$885       06DA GR
  2 A$string$886       06DC GR  |   2 A$string$887       06DF GR
  2 A$string$888       06E1 GR  |   2 A$string$889       06E3 GR
  2 A$string$89        004E GR  |   2 A$string$890       06E5 GR
  2 A$string$891       06E7 GR  |   2 A$string$892       06E9 GR
  2 A$string$893       06EC GR  |   2 A$string$894       06F0 GR
  2 A$string$896       06F3 GR  |   2 A$string$897       06F5 GR
  2 A$string$898       06F9 GR  |   2 A$string$899       06FC GR
  2 A$string$90        0050 GR  |   2 A$string$900       0700 GR
  2 A$string$901       0704 GR  |   2 A$string$903       0706 GR
  2 A$string$904       0708 GR  |   2 A$string$905       070C GR
  2 A$string$906       070F GR  |   2 A$string$907       0713 GR
  2 A$string$908       0717 GR  |   2 A$string$909       0719 GR
  2 A$string$91        0052 GR  |   2 A$string$910       071B GR
  2 A$string$912       071F GR  |   2 A$string$914       0721 GR
  2 A$string$915       0723 GR  |   2 A$string$916       0725 GR
  2 A$string$917       0727 GR  |   2 A$string$918       072A GR
  2 A$string$92        0054 GR  |   2 A$string$920       072E GR
  2 A$string$921       0730 GR  |   2 A$string$922       0733 GR
  2 A$string$923       0735 GR  |   2 A$string$924       0737 GR
  2 A$string$925       0739 GR  |   2 A$string$926       073B GR
  2 A$string$927       073D GR  |   2 A$string$928       073F GR
  2 A$string$929       0742 GR  |   2 A$string$931       0744 GR
  2 A$string$932       0746 GR  |   2 A$string$933       074A GR
  2 A$string$934       074D GR  |   2 A$string$935       0751 GR
  2 A$string$937       0755 GR  |   2 A$string$938       0757 GR
  2 A$string$939       075B GR  |   2 A$string$94        0056 GR
  2 A$string$940       075E GR  |   2 A$string$941       0762 GR
  2 A$string$942       0766 GR  |   2 A$string$943       0768 GR
  2 A$string$944       076A GR  |   2 A$string$946       076E GR
  2 A$string$947       0770 GR  |   2 A$string$949       0772 GR
  2 A$string$95        0058 GR  |   2 A$string$950       0774 GR
  2 A$string$951       0776 GR  |   2 A$string$952       0778 GR
  2 A$string$953       077B GR  |   2 A$string$954       077F GR
  2 A$string$956       0783 GR  |   2 A$string$957       0785 GR
  2 A$string$958       0788 GR  |   2 A$string$959       078A GR
  2 A$string$960       078C GR  |   2 A$string$961       078E GR
  2 A$string$962       0790 GR  |   2 A$string$963       0792 GR
  2 A$string$964       0795 GR  |   2 A$string$966       0798 GR
  2 A$string$967       079B GR  |   2 A$string$968       079F GR
  2 A$string$969       07A2 GR  |   2 A$string$970       07A6 GR
  2 A$string$971       07AA GR  |   2 A$string$973       07AC GR
  2 A$string$974       07AF GR  |   2 A$string$975       07B3 GR
  2 A$string$976       07B5 GR  |   2 A$string$977       07B9 GR
  2 A$string$978       07BD GR  |   2 A$string$979       07BF GR
  2 A$string$98        005A GR  |   2 A$string$980       07C1 GR
  2 A$string$982       07C5 GR  |   2 A$string$983       07C7 GR
  2 A$string$984       07C8 GR  |   2 A$string$985       07CA GR
  2 A$string$986       07CC GR  |   2 A$string$987       07CE GR
  2 A$string$988       07D0 GR  |   2 A$string$99        005C GR
  2 A$string$990       07D2 GR  |   2 A$string$991       07D5 GR
  2 A$string$992       07D9 GR  |   2 A$string$994       07DD GR
  2 A$string$995       07DF GR  |   2 A$string$996       07E2 GR
  2 A$string$997       07E4 GR  |   2 A$string$998       07E6 GR
  2 A$string$999       07E8 GR  |   2 L100               0440 R
  2 L101               0473 R   |   2 L102               046D R
  2 L103               047F R   |   2 L104               0479 R
  2 L108               043D R   |   2 L110               0AD0 R
  2 L112               04AB R   |   2 L113               04BA R
  2 L115               07EE R   |   2 L117               0800 R
  2 L119               04ED R   |   2 L12                0056 R
  2 L121               04FD R   |   2 L123               050D R
  2 L125               0515 R   |   2 L126               0519 R
  2 L127               0528 R   |   2 L129               089A R
  2 L13                0046 R   |   2 L130               0532 R
  2 L132               0555 R   |   2 L135               0583 R
  2 L137               058B R   |   2 L138               058D R
  2 L139               059B R   |   2 L141               08EC R
  2 L143               05D9 R   |   2 L145               05E6 R
  2 L147               05EE R   |   2 L148               05F2 R
  2 L149               0601 R   |   2 L151               092C R
  2 L152               060B R   |   2 L154               062E R
  2 L157               065C R   |   2 L159               0664 R
  2 L16                0044 R   |   2 L160               0666 R
  2 L161               0674 R   |   2 L163               097E R
  2 L165               06AC R   |   2 L169               06C5 R
  2 L170               06C9 R   |   2 L173               06F3 R
  2 L174               0C23 R   |   2 L176               0A49 R
  2 L178               0706 R   |   2 L18                00B0 R
  2 L181               071F R   |   2 L182               0721 R
  2 L185               0744 R   |   2 L187               0755 R
  2 L19                0074 R   |   2 L191               076E R
  2 L192               0772 R   |   2 L195               0798 R
  2 L196               0C0B R   |   2 L198               09BA R
  2 L2                 0014 R   |   2 L200               07AC R
  2 L203               07C5 R   |   2 L205               04A3 R
  2 L206               07DD R   |   2 L207               04D7 R
  2 L208               0809 R   |   2 L209               0828 R
  2 L21                00A6 R   |   2 L210               0847 R
  2 L211               0881 R   |   2 L212               0B19 R
  2 L213               08AC R   |   2 L214               056D R
  2 L215               08D6 R   |   2 L216               05A4 R
  2 L217               05C3 R   |   2 L218               0A95 R
  2 L219               0913 R   |   2 L22                007E R
  2 L220               0AF2 R   |   2 L221               093E R
  2 L222               0646 R   |   2 L223               0968 R
  2 L224               067A R   |   2 L225               0696 R
  2 L226               0A5B R   |   2 L227               06DA R
  2 L230               0A18 R   |   2 L231               072E R
  2 L233               09FF R   |   2 L234               09CC R
  2 L235               0783 R   |   2 L238               0992 R
  2 L239               0BBC R   |   2 L24                0088 R
  2 L240               0BCF R   |   2 L241               0BAD R
  2 L242               0AC5 R   |   2 L243               07D2 R
  2 L244               07F9 R   |   2 L245               0B79 R
  2 L246               0BA0 R   |   2 L247               0865 R
  2 L248               0877 R   |   2 L249               0B11 R
  2 L25                00C6 R   |   2 L250               08A4 R
  2 L251               08B7 R   |   2 L252               0B4B R
  2 L253               08CB R   |   2 L254               0AFD R
  2 L255               08F5 R   |   2 L256               0A8B R
  2 L257               0AB3 R   |   2 L258               0909 R
  2 L259               0AEA R   |   2 L26                0092 R
  2 L260               0936 R   |   2 L261               0949 R
  2 L262               0B38 R   |   2 L263               095D R
  2 L264               0B5E R   |   2 L265               0984 R
  2 L266               0A79 R   |   2 L267               0A36 R
  2 L268               09EA R   |   2 L269               09AD R
  2 L270               0B93 R   |   2 L271               0B24 R
  2 L272               04F6 R   |   2 L273               0506 R
  2 L274               0B86 R   |   2 L275               0B6C R
  2 L276               0BFD R   |   2 L277               0BEF R
  2 L28                00E9 R   |   2 L284               0CB4 R
  2 L285               0C8F R   |   2 L286               0CC2 R
  2 L287               0CBC R   |   2 L288               0CCE R
  2 L289               0CC8 R   |   2 L29                00D6 R
  2 L293               0C8D R   |   2 L3                 0008 R
  2 L300               0D77 R   |   2 L301               0D50 R
  2 L302               0D85 R   |   2 L303               0D7F R
  2 L304               0D93 R   |   2 L305               0D8D R
  2 L309               0D4E R   |   2 L312               0DEB R
  2 L313               0DC4 R   |   2 L314               0DF9 R
  2 L315               0DF3 R   |   2 L316               0E07 R
  2 L317               0E01 R   |   2 L321               0DC2 R
  2 L323               0EA9 R   |   2 L324               0E1C R
  2 L325               0E79 R   |   2 L326               0E2B R
  2 L327               0EB2 R   |   2 L328               0E35 R
  2 L330               0E8E R   |   2 L331               0E3F R
  2 L335               0E9E R   |   2 L336               0E39 R
  2 L34                013F R   |   2 L341               0F2D R
  2 L342               0F06 R   |   2 L343               0F3B R
  2 L344               0F35 R   |   2 L345               0F4B R
  2 L347               0F64 R   |   2 L348               0F56 R
  2 L349               0F70 R   |   2 L35                0118 R
  2 L350               0F6A R   |   2 L352               0F43 R
  2 L357               0F04 R   |   2 L36                014D R
  2 L360               0FC2 R   |   2 L361               0F9D R
  2 L362               0FD0 R   |   2 L363               0FD7 R
  2 L364               0FE7 R   |   2 L366               0FFF R
  2 L367               0FF1 R   |   2 L368               100B R
  2 L369               1005 R   |   2 L37                0147 R
  2 L371               0FDF R   |   2 L375               0F9B R
  2 L378               1064 R   |   2 L379               103D R
  2 L38                015B R   |   2 L380               1072 R
  2 L381               106C R   |   2 L382               1082 R
  2 L384               1090 R   |   2 L385               1097 R
  2 L386               10A3 R   |   2 L387               109D R
  2 L389               107A R   |   2 L39                0155 R
  2 L393               103B R   |   2 L396               10F5 R
  2 L397               10D0 R   |   2 L398               1141 R
  2 L399               111B R   |   2 L400               1150 R
  2 L401               114A R   |   2 L402               115E R
  2 L403               1158 R   |   2 L408               10CE R
  2 L411               11B1 R   |   2 L412               118A R
  2 L413               11C0 R   |   2 L414               11BA R
  2 L415               11DE R   |   2 L417               121D R
  2 L418               1200 R   |   2 L420               11CE R
  2 L424               1188 R   |   2 L427               1271 R
  2 L428               124C R   |   2 L429               12CB R
  2 L43                0116 R   |   2 L430               12A1 R
  2 L431               1304 R   |   2 L432               12E9 R
  2 L436               124A R   |   2 L439               135A R
  2 L440               1335 R   |   2 L441               1368 R
  2 L442               1362 R   |   2 L443               1374 R
  2 L444               136E R   |   2 L448               1333 R
  2 L451               13DA R   |   2 L452               13B3 R
  2 L453               13E8 R   |   2 L454               13E2 R
  2 L455               13F8 R   |   2 L457               1404 R
  2 L458               140B R   |   2 L459               1412 R
  2 L46                01B9 R   |   2 L460               1419 R
  2 L461               1420 R   |   2 L462               142C R
  2 L463               1426 R   |   2 L465               13F0 R
  2 L469               13B0 R   |   2 L47                0192 R
  2 L472               149D R   |   2 L473               1478 R
  2 L475               14A5 R   |   2 L478               14C7 R
  2 L479               14C1 R   |   2 L48                01C7 R
  2 L480               14D3 R   |   2 L481               14CD R
  2 L483               14B1 R   |   2 L488               14B3 R
  2 L489               1475 R   |   2 L49                01C1 R
  2 L490               14B9 R   |   2 L493               152C R
  2 L494               1507 R   |   2 L495               153A R
  2 L496               1534 R   |   2 L497               1546 R
  2 L498               1540 R   |   2 L50                01D5 R
  2 L502               1505 R   |   2 L505               1599 R
  2 L506               1572 R   |   2 L507               15A8 R
  2 L508               15A2 R   |   2 L509               15C6 R
  2 L51                01CF R   |   2 L511               1605 R
  2 L512               15E8 R   |   2 L514               15B6 R
  2 L518               1570 R   |   2 L520               1656 R
  2 L521               1650 R   |   2 L522               163A R
  2 L525               1636 R   |   2 L527               1666 R
  2 L533               1662 R   |   2 L534               165C R
  2 L537               168C R   |   2 L538               16AD R
  2 L544               16F9 R   |   2 L55                0190 R
  2 L57                0330 R   |   2 L58                01F8 R
  2 L59                0329 R   |   2 L60                0201 R
  2 L61                0211 R   |   2 L62                021F R
  2 L63                0221 R   |   2 L64                0314 R
  2 L65                0233 R   |   2 L66                0243 R
  2 L67                0253 R   |   2 L68                0261 R
  2 L69                025F R   |   2 L70                0300 R
  2 L71                0278 R   |   2 L73                02F9 R
  2 L74                0281 R   |   2 L75                0290 R
  2 L76                029E R   |   2 L77                029C R
  2 L78                02E8 R   |   2 L79                02AD R
  2 L80                02BC R   |   2 L81                02CA R
  2 L82                02D6 R   |   2 L84                035C R
  2 L85                0368 R   |   2 L86                037A R
  2 L87                034A R   |   2 L88                033F R
  2 L9                 0038 R   |   2 L95                040C R
  2 L99                0465 R   |   2 _Rand              039C GR
  2 _RandMax           03CA GR  |     _Vec_Text_Widt     **** GX
    __Intensity_a      **** GX  |     __XC               **** GX
    __YC               **** GX  |     __a                **** GX
    __b                **** GX  |     __c                **** GX
  2 __fi               0D2A GR  |   2 __fi_s             0166 GR
  2 __fi_s_s           0D9E GR  |   2 __fii              1227 GR
  2 __fl               130C GR  |   2 __fl_l_s           1434 GR
  2 __fl_s             040F GR  |   2 __fll              14DB GR
  2 __fll_s            0C5D GR  |   2 __fs               00F9 GR
  2 __fsi              1166 GR  |   2 __fsi2             10AB GR
  2 __fsi2_s           0F78 GR  |   2 __fsi_s            1013 GR
  2 __fsl_s            137C GR  |   2 __fss              0EE7 GR
  2 __lltoa            0487 GR  |   2 __ltoa             01E0 GR
    __x                **** GX  |   2 _displayMessag     166B GR
    _dp_VIA_cntl       **** GX  |     _dp_VIA_t1_cnt     **** GX
  2 _exchange0with     165A GR  |   2 _initString        0D0A GR
  2 _itoa              005A GR  |   2 _itoa_s            00F0 GR
  2 _itoa_s_s          0E12 GR  |   2 _lRandMax          16B1 GR
  2 _lltoa             0C3F GR  |   2 _lltoa_s           0C45 GR
  2 _ltoa              038C GR  |   2 _ltoa_s            0ED1 GR
    _msg               **** GX  |     _msgLine           **** GX
  2 _printMessage      001A GR  |   2 _printfsi          154E GR
  2 _removeSpaces      003A GR  |   2 _setRandSeedNP     0CD6 GR
    _stringBuffer1     **** GX  |     _stringBuffer4     **** GX
    _stringBuffer4     **** GX  |     _stringBuffer6     **** GX
    _stringBufferE     **** GX  |     _syncPrintStrd     **** GX
    _umodhi3           **** GX  |   2 _vstrcpy           0000 GR
  2 _vstrlen           1626 GR

ASxxxx Assembler V05.00  (Motorola 6809), page 2.
Hexidecimal [16-Bits]

Area Table

[_CSEG]
   0 _CODE            size    0   flags C080
   2 .text            size 1701   flags  100
[_DSEG]
   1 _DATA            size    0   flags C0C0

