                              1  .module titleScenario.s
                              2  .area .text
                              3 
                     0009     4 SPRITE_SCALE        =        0x09; 80 highest possible value
                     0001     5 SHITREG_POKE_VALUE  =        0x01 
                              6 
                              7 
                              8 ; PC not usable :-)
                              9 
                             10 ; cmpx #4
                             11 ; pshs d,y,x,pc,u,cc;16
                             12 ; puls d,y,x,pc,u,cc; 16
                             13 ; pshs y,x,pc,u,d;15
                             14 ; puls y,x,pc,u,d; 15
                             15 ; pshs y,x,pc,u,cc;14
                             16 ; puls y,x,pc,u,cc; 14
                             17 ; pshs a,x,pc,u,cc;13
                             18 ; puls a,x,pc,u,cc;13
                             19 ; pshs x,pc,u,cc;12
                             20 ; puls x,pc,u,cc;12
                             21 ; pshs pc,u,d;11
                             22 ; puls pc,u,d;11
                             23 ; pshs pc,u,cc;10
                             24 ; puls pc,u,cc;10
                             25 ; pshs u,d;9
                             26 ; puls u,d;9
                             27 ; pshs u,cc;8
                             28 ; puls u,cc;8
                             29 ; pshs u;7
                             30 ; puls u;7
                             31 ; pshs cc;6
                             32 ; puls cc;6
                             33 ; tfr a,a; 6
                             34 ; brn 0; 3
                             35 ; NOP ; 2
                             36 
                             37 
                             38  
                             39 
                             40 ;/* HIGHEST SCALE FOR SMARTLIST + CONTINUE is 16!
                             41 ;***************************************************************************
                             42 ; DEFINE SECTION
                             43 ;***************************************************************************
                     C829    44 Vec_Pattern         =      0xC829                        ;Dot pattern (bits) 
                     FD0D    45 music1              =      0xFD0D 
                     D000    46 VIA_port_b          =      0xD000                        ;VIA port B data I/O register 
                     D001    47 VIA_port_a          =      0xD001                        ;VIA port A data I/O register (handshaking) 
                     D004    48 VIA_t1_cnt_lo       =      0xD004                        ;VIA timer 1 count register lo (scale factor) 
                     D005    49 VIA_t1_cnt_hi       =      0xD005                        ;VIA timer 1 count register hi 
                     D00A    50 VIA_shift_reg       =      0xD00A                        ;VIA shift register 
                     D00C    51 VIA_cntl            =      0xD00C                        ;VIA control register 
                     D00D    52 VIA_int_flags       =      0xD00D                        ;VIA interrupt flags register 
                     F2A5    53 Intensity_5F        =      0xF2A5                        ; 
                     F192    54 Wait_Recal          =      0xF192                        ; 
                     F312    55 Moveto_d            =      0xF312                        ; 
                     C81B    56 Vec_Joy_1_X         =      0xC81B                        ;Joystick 1 left/right 
                     F1F8    57 Joy_Digital         =      0xF1F8 
                             58 ;***************************************************************************
                             59 ; HEADER SECTION
                             60 ;***************************************************************************
                             61 ; The cartridge ROM starts at address 0
                             62                     .area .text     
                             63                     .setdp   0xd000,_DATA 
                             64  .globl _drawTitle
   0000                      65 _drawTitle: 
   0000 34 60         [ 7]   66     pshs u,y
                             67  .globl redoFromStart
   0002                      68 redoFromStart: 
   0002 10 8E 03 F5   [ 4]   69                     LDy      #__SMVB_sceneData                ; address of data 
                             70  .globl nextScenePart
   0006                      71 nextScenePart: 
   0006 86 09         [ 2]   72                     lda      #SPRITE_SCALE 
   0008 B7 D0 04      [ 5]   73                     sta      VIA_t1_cnt_lo 
   000B 86 CE         [ 2]   74                     LDA      #0xCE                         ;Blank low, zero high? 
   000D 97 0C         [ 4]   75                     STA      *VIA_cntl 
   000F EE A1         [ 8]   76                     LDU      ,y++ 
   0011 27 04         [ 3]   77                     beq      drawTtileDone
   0013 8D 04         [ 7]   78                     bsr      drawSmart 
   0015 20 EF         [ 3]   79                     BRA      nextScenePart
                             80  .globl drawTtileDone
   0017                      81 drawTtileDone:
   0017 35 E0         [ 8]   82     puls u,y,pc
                             83 
                             84 ;***************************************************************************
                             85 ; ROUTINE SECTION
                             86 ;***************************************************************************
                             87 ; Warning - direct line found!
                             88 ;                    direct   0xd0 
                             89 ;***************************************************************************
                             90 
                             91 ; for scale 7 
                             92 ; we need WAIT6 after a poke to hi
                             93 ; followd directly by a set_y_int
                             94 ; todo 
                             95 ; last draw could contain 0xF in A
                             96 ; than load not needed - attention 
                             97 ; when cycles are not done for load, than shift value might be needed 2 higher!
                             98 ; also in X could be some sensible value in X for one of the other 
                             99 ;SMVB_lastDraw_rts2                                ;#isfunction  
                            100 ; list format
                            101 ; y pos byte -> REG A
                            102 ; VIA_B for x reg = 01 *256 + x pos byte -> REG X
                            103 ; pointer to draw function -> PC
                            104 ; 5 bytes per "position" (except continuous)
                            105 ; reg A must be constantly == 0!
                            106 ; opti finding
                            107 ; a)  Findings T1 can be 2 cycles "off" -> smartlist max scale of "optimium" reduced from 9 to 7 scale :-(
                            108 ; b ) y and z sampling need up to 4 cycles to bare fruit (poke b reg)
                            109 ;     90% vectrex (guess) need 0 cycles
                            110 ;     95% vectrex are content with 2 cycles (1 nop)
                            111 ;     some few vectrex NEED 4 cycles!!! ARGH!
                            112 ; c)  std to reg b of via (Y Reg) does not always / everywhere work
                            113 ;
                            114 ;
                            115 ; delays needed for 5% of vectrex
                            116 ; cost on a "full" screen
                            117 ; about 2000 cycles
                            118 ;VECTREX_SAVE_DELAY  =        1 
                     0001   119 SHITREG_POKE_VALUE  =        0x01 
                            120 
                            121 
                            122 
                            123 
                            124 ;
                            125 
                            126 ;
                            127   
                            128 
                            129 
                            130 
                     0009   131 VB_SPRITE_SCALE     =        SPRITE_SCALE 
                            132 ; NOPS add one less, since PULL X is one cycle more than pull a!
                            133 ;***************************************************************************
                            134  .globl drawSmart
   0019                     135 drawSmart:                                            ;#isfunction  
   0019 4F            [ 2]  136                     clra     
   001A 37 94         [ 8]  137                     pulu     b,x,pc 
                            138 ;***************************************************************************
                            139 ;/* HIGHEST SCALE FOR SMARTLIST + CONTINUE is 16!
                            140 
                            141  .globl SMVB_continue_yd4_yStays_single
   001C                     142 SMVB_continue_yd4_yStays_single: ;#isfunction  
                            143  .globl SMVB_continue_yStays_single
   001C                     144 SMVB_continue_yStays_single:                               ;#isfunction  
   001C 9F 00         [ 5]  145                     stx      *VIA_port_b                  ; 5 
   001E 97 05         [ 4]  146                     sta      *VIA_t1_cnt_hi               ; 4 
                            147 ; macro call ->                     ADD_NOPS  
   0020 12            [ 2]  148  nop 
   0021 37 94         [ 8]  149                     pulu     b,x,pc 
                            150 
                            151 
                            152  .globl SMVB_continue7_single
   0023                     153 SMVB_continue7_single:                                  ;#isfunction  
                            154 ; macro call ->                     SET_Y_INT  
   0023 97 00         [ 4]  155                     sta      *VIA_port_b                  ; 4 
   0025 D7 01         [ 4]  156                     stb      *VIA_port_a                  ; 4 
                            157 ; macro call ->                     Y_DELAY                               ; 4 
                            158 ; macro call ->  Y_DELAY_4
   0027 12            [ 2]  159  nop 
   0028 12            [ 2]  160  nop 
                            161 ; macro call ->  ADD_BURST
                            162  
                            163 ; macro call ->  ADD_BURST
                            164  
   0029 9F 00         [ 5]  165                     stx      *VIA_port_b                  ; 5 
   002B 97 05         [ 4]  166                     sta      *VIA_t1_cnt_hi               ; 4 
                            167 ; macro call ->                     ADD_NOPS                              ; 21 
   002D 12            [ 2]  168  nop 
                            169 ; this is one pulu cycle more!
                            170 ; thus ADD_NOPS can be one cycle less!
                            171 ; minus 6!
   002E 37 14         [ 7]  172                     pulu     b,x                          ; 5+3 
                            173  .globl SMVB_continue6_single
   0030                     174 SMVB_continue6_single:                                  ;#isfunction  
                            175 ; macro call ->                     SET_Y_INT  
   0030 97 00         [ 4]  176                     sta      *VIA_port_b                  ; 4 
   0032 D7 01         [ 4]  177                     stb      *VIA_port_a                  ; 4 
                            178 ; macro call ->                     Y_DELAY                               ; 4 
                            179 ; macro call ->  Y_DELAY_4
   0034 12            [ 2]  180  nop 
   0035 12            [ 2]  181  nop 
                            182 ; macro call ->  ADD_BURST
                            183  
                            184 ; macro call ->  ADD_BURST
                            185  
   0036 9F 00         [ 5]  186                     stx      *VIA_port_b                  ; 5 
   0038 97 05         [ 4]  187                     sta      *VIA_t1_cnt_hi               ; 4 
                            188 ; macro call ->                     ADD_NOPS                              ; 21 
   003A 12            [ 2]  189  nop 
   003B 37 14         [ 7]  190                     pulu     b,x                          ; 5+3 
                            191  .globl SMVB_continue5_single
   003D                     192 SMVB_continue5_single:                                  ;#isfunction  
                            193 ; macro call ->                     SET_Y_INT  
   003D 97 00         [ 4]  194                     sta      *VIA_port_b                  ; 4 
   003F D7 01         [ 4]  195                     stb      *VIA_port_a                  ; 4 
                            196 ; macro call ->                     Y_DELAY                               ; 4 
                            197 ; macro call ->  Y_DELAY_4
   0041 12            [ 2]  198  nop 
   0042 12            [ 2]  199  nop 
                            200 ; macro call ->  ADD_BURST
                            201  
                            202 ; macro call ->  ADD_BURST
                            203  
   0043 9F 00         [ 5]  204                     stx      *VIA_port_b                  ; 5 
   0045 97 05         [ 4]  205                     sta      *VIA_t1_cnt_hi               ; 4 
                            206 ; macro call ->                     ADD_NOPS                              ; 21 
   0047 12            [ 2]  207  nop 
   0048 37 14         [ 7]  208                     pulu     b,x                          ; 5+3 
                            209  .globl SMVB_continue4_single
   004A                     210 SMVB_continue4_single:                                  ;#isfunction  
                            211 ; macro call ->                     SET_Y_INT  
   004A 97 00         [ 4]  212                     sta      *VIA_port_b                  ; 4 
   004C D7 01         [ 4]  213                     stb      *VIA_port_a                  ; 4 
                            214 ; macro call ->                     Y_DELAY                               ; 4 
                            215 ; macro call ->  Y_DELAY_4
   004E 12            [ 2]  216  nop 
   004F 12            [ 2]  217  nop 
                            218 ; macro call ->  ADD_BURST
                            219  
                            220 ; macro call ->  ADD_BURST
                            221  
   0050 9F 00         [ 5]  222                     stx      *VIA_port_b                  ; 5 
   0052 97 05         [ 4]  223                     sta      *VIA_t1_cnt_hi               ; 4 
                            224 ; macro call ->                     ADD_NOPS                              ; 21 
   0054 12            [ 2]  225  nop 
   0055 37 14         [ 7]  226                     pulu     b,x                          ; 5+3 
                            227  .globl SMVB_continue3_single
   0057                     228 SMVB_continue3_single:                                  ;#isfunction  
                            229 ; macro call ->                     SET_Y_INT  
   0057 97 00         [ 4]  230                     sta      *VIA_port_b                  ; 4 
   0059 D7 01         [ 4]  231                     stb      *VIA_port_a                  ; 4 
                            232 ; macro call ->                     Y_DELAY                               ; 4 
                            233 ; macro call ->  Y_DELAY_4
   005B 12            [ 2]  234  nop 
   005C 12            [ 2]  235  nop 
                            236 ; macro call ->  ADD_BURST
                            237  
                            238 ; macro call ->  ADD_BURST
                            239  
   005D 9F 00         [ 5]  240                     stx      *VIA_port_b                  ; 5 
   005F 97 05         [ 4]  241                     sta      *VIA_t1_cnt_hi               ; 4 
                            242 ; macro call ->                     ADD_NOPS                              ; 21 
   0061 12            [ 2]  243  nop 
   0062 37 14         [ 7]  244                     pulu     b,x                          ; 5+3 
                            245  .globl SMVB_continue2_single
   0064                     246 SMVB_continue2_single:                                  ;#isfunction  
                            247 ; macro call ->                     SET_Y_INT  
   0064 97 00         [ 4]  248                     sta      *VIA_port_b                  ; 4 
   0066 D7 01         [ 4]  249                     stb      *VIA_port_a                  ; 4 
                            250 ; macro call ->                     Y_DELAY                               ; 4 
                            251 ; macro call ->  Y_DELAY_4
   0068 12            [ 2]  252  nop 
   0069 12            [ 2]  253  nop 
                            254 ; macro call ->  ADD_BURST
                            255  
                            256 ; macro call ->  ADD_BURST
                            257  
   006A 9F 00         [ 5]  258                     stx      *VIA_port_b                  ; 5 
   006C 97 05         [ 4]  259                     sta      *VIA_t1_cnt_hi               ; 4 
                            260 ; macro call ->                     ADD_NOPS                              ; 21 
   006E 12            [ 2]  261  nop 
   006F 37 14         [ 7]  262                     pulu     b,x                          ; 5+3 
                            263 ; continue uses same shift  
                            264  .globl SMVB_continue_single
   0071                     265 SMVB_continue_single:                                   ;#isfunction  
   0071 D7 01         [ 4]  266                     stb      *VIA_port_a                  ; 4 shift not changed, move might also be a draw 
                            267 ; y is inherently known to be == old_x, y was = to 0 by generator
                            268  .globl SMVB_continue_newY_eq_oldX_single
   0073                     269 SMVB_continue_newY_eq_oldX_single:                       ;#isfunction  
   0073 97 00         [ 4]  270                     sta      *VIA_port_b                  ; 4 
                            271 ; macro call ->                     Y_DELAY                               ; 4 
                            272 ; macro call ->  Y_DELAY_4
   0075 12            [ 2]  273  nop 
   0076 12            [ 2]  274  nop 
                            275 ; macro call ->  ADD_BURST
                            276  
                            277 ; macro call ->  ADD_BURST
                            278  
   0077 9F 00         [ 5]  279                     stx      *VIA_port_b                  ; 5 
   0079 97 05         [ 4]  280                     sta      *VIA_t1_cnt_hi 
                            281 ; macro call ->                     ADD_NOPS  
   007B 12            [ 2]  282  nop 
   007C 37 94         [ 8]  283                     pulu     b,x,pc 
                            284 
                            285 
                            286  .globl SMVB_continue_yd4_single
   007E                     287 SMVB_continue_yd4_single:                                   ;#isfunction  
   007E D7 01         [ 4]  288                     stb      *VIA_port_a                  ; 4 shift not changed, move might also be a draw 
                            289 ; y is inherently known to be == old_x, y was = to 0 by generator
                            290  .globl SMVB_continue_yd4_newY_eq_oldX_single
   0080                     291 SMVB_continue_yd4_newY_eq_oldX_single:                       ;#isfunction  
   0080 97 00         [ 4]  292                     sta      *VIA_port_b                  ; 4 
                            293 ; macro call ->                     Y_DELAY_4                             ; 4 
   0082 12            [ 2]  294  nop 
   0083 12            [ 2]  295  nop 
                            296 ; macro call ->  ADD_BURST
                            297  
   0084 9F 00         [ 5]  298                     stx      *VIA_port_b                  ; 5 
   0086 97 05         [ 4]  299                     sta      *VIA_t1_cnt_hi 
                            300 ; macro call ->                     ADD_NOPS  
   0088 12            [ 2]  301  nop 
   0089 37 94         [ 8]  302                     pulu     b,x,pc
                            303 
                            304 
                            305  .globl SMVB_continue_single_sj
   008B                     306 SMVB_continue_single_sj:                                   ;#isfunction  
   008B D7 01         [ 4]  307                     stb      *VIA_port_a                  ; 4 shift not changed, move might also be a draw 
                            308 ; y is inherently known to be == old_x, y was = to 0 by generator
                            309  .globl SMVB_continue_newY_eq_oldX_single_sj
   008D                     310 SMVB_continue_newY_eq_oldX_single_sj:                     ;#isfunction  
   008D 97 00         [ 4]  311                     sta      *VIA_port_b                  ; 4 
                            312 ; macro call ->                     Y_DELAY                               ; 4 
                            313 ; macro call ->  Y_DELAY_4
   008F 12            [ 2]  314  nop 
   0090 12            [ 2]  315  nop 
                            316 ; macro call ->  ADD_BURST
                            317  
                            318 ; macro call ->  ADD_BURST
                            319  
   0091 9F 00         [ 5]  320                     stx      *VIA_port_b                  ; 5 
   0093 97 05         [ 4]  321                     sta      *VIA_t1_cnt_hi 
                            322 ; macro call ->                     ADD_NOPS_NOU                          ; reduced by ldu ,u - 5 cycles 
   0095 12            [ 2]  323  nop 
   0096 EE C4         [ 5]  324                     ldu      ,u 
   0098 37 94         [ 8]  325                     pulu     b,x,pc 
                            326 ; continue uses same shift
                            327 ; y is inherently known to be == x, 
                            328  .globl SMVB_continue_yd4_yEqx_single
   009A                     329 SMVB_continue_yd4_yEqx_single: ;#isfunction 
                            330 ; macro call ->                     SET_Y_INT  
   009A 97 00         [ 4]  331                     sta      *VIA_port_b                  ; 4 
   009C D7 01         [ 4]  332                     stb      *VIA_port_a                  ; 4 
                            333 ; macro call ->                     Y_DELAY_HALF_4                          ; 4 
   009E 12            [ 2]  334  nop 
                            335 ; macro call ->  ADD_BURST
                            336  
                            337 
   009F 0C 00         [ 6]  338                     inc      *VIA_port_b 
   00A1 97 05         [ 4]  339                     sta      *VIA_t1_cnt_hi 
                            340 ; macro call ->                     ADD_NOPS  
   00A3 12            [ 2]  341  nop 
   00A4 37 94         [ 8]  342                     pulu     b,x,pc 
                            343 
                            344  .globl SMVB_continue_yEqx_single
   00A6                     345 SMVB_continue_yEqx_single:                                 ;#isfunction  
                            346 ; macro call ->                     SET_Y_INT  
   00A6 97 00         [ 4]  347                     sta      *VIA_port_b                  ; 4 
   00A8 D7 01         [ 4]  348                     stb      *VIA_port_a                  ; 4 
                            349 ; macro call ->                     Y_DELAY_HALF                          ; 4 
                            350 ; macro call ->  Y_DELAY_HALF_4
   00AA 12            [ 2]  351  nop 
                            352 ; macro call ->  ADD_BURST
                            353  
                            354 
                            355  
                            356 
   00AB 0C 00         [ 6]  357                     inc      *VIA_port_b 
   00AD 97 05         [ 4]  358                     sta      *VIA_t1_cnt_hi 
                            359 ; macro call ->                     ADD_NOPS  
   00AF 12            [ 2]  360  nop 
   00B0 37 94         [ 8]  361                     pulu     b,x,pc 
                            362  .globl SMVB_continue_tripple
   00B2                     363 SMVB_continue_tripple:                                     ;#isfunction  
                            364 ; macro call ->                     SET_Y_INT  
   00B2 97 00         [ 4]  365                     sta      *VIA_port_b                  ; 4 
   00B4 D7 01         [ 4]  366                     stb      *VIA_port_a                  ; 4 
                            367 ; macro call ->                     Y_DELAY                               ; 4 
                            368 ; macro call ->  Y_DELAY_4
   00B6 12            [ 2]  369  nop 
   00B7 12            [ 2]  370  nop 
                            371 ; macro call ->  ADD_BURST
                            372  
                            373 ; macro call ->  ADD_BURST
                            374  
   00B8 9F 00         [ 5]  375                     stx      *VIA_port_b                  ; 5 
   00BA 97 05         [ 4]  376                     sta      *VIA_t1_cnt_hi 
                            377 ; macro call ->                     ADD_NOPS  
   00BC 12            [ 2]  378  nop 
   00BD 7E 01 16      [ 4]  379                     jmp      cont2 
                            380 
                            381  .globl SMVB_continue_quadro
   00C0                     382 SMVB_continue_quadro:                                      ;#isfunction  
                            383 ; macro call ->                     SET_Y_INT  
   00C0 97 00         [ 4]  384                     sta      *VIA_port_b                  ; 4 
   00C2 D7 01         [ 4]  385                     stb      *VIA_port_a                  ; 4 
                            386 ; macro call ->                     Y_DELAY                               ; 4 
                            387 ; macro call ->  Y_DELAY_4
   00C4 12            [ 2]  388  nop 
   00C5 12            [ 2]  389  nop 
                            390 ; macro call ->  ADD_BURST
                            391  
                            392 ; macro call ->  ADD_BURST
                            393  
   00C6 9F 00         [ 5]  394                     stx      *VIA_port_b                  ; 5 
   00C8 97 05         [ 4]  395                     sta      *VIA_t1_cnt_hi 
                            396 ; macro call ->                     ADD_NOPS  
   00CA 12            [ 2]  397  nop 
   00CB 7E 01 0D      [ 4]  398                     jmp      cont3 
                            399  .globl SMVB_continue_hex
   00CE                     400 SMVB_continue_hex: ;#isfunction 
                            401 ; macro call ->                     SET_Y_INT  
   00CE 97 00         [ 4]  402                     sta      *VIA_port_b                  ; 4 
   00D0 D7 01         [ 4]  403                     stb      *VIA_port_a                  ; 4 
                            404 ; macro call ->                     Y_DELAY                               ; 4 
                            405 ; macro call ->  Y_DELAY_4
   00D2 12            [ 2]  406  nop 
   00D3 12            [ 2]  407  nop 
                            408 ; macro call ->  ADD_BURST
                            409  
                            410 ; macro call ->  ADD_BURST
                            411  
   00D4 9F 00         [ 5]  412                     stx      *VIA_port_b                  ; 5 
   00D6 97 05         [ 4]  413                     sta      *VIA_t1_cnt_hi 
                            414 ; macro call ->                     ADD_NOPS  
   00D8 12            [ 2]  415  nop 
   00D9 7E 00 FB      [ 4]  416                     jmp      cont5 
                            417  .globl SMVB_continue_octo
   00DC                     418 SMVB_continue_octo:                                        ;#isfunction  
                            419 ; macro call ->                     SET_Y_INT  
   00DC 97 00         [ 4]  420                     sta      *VIA_port_b                  ; 4 
   00DE D7 01         [ 4]  421                     stb      *VIA_port_a                  ; 4 
                            422 ; macro call ->                     Y_DELAY                               ; 4 
                            423 ; macro call ->  Y_DELAY_4
   00E0 12            [ 2]  424  nop 
   00E1 12            [ 2]  425  nop 
                            426 ; macro call ->  ADD_BURST
                            427  
                            428 ; macro call ->  ADD_BURST
                            429  
   00E2 9F 00         [ 5]  430                     stx      *VIA_port_b                  ; 5 
   00E4 97 05         [ 4]  431                     sta      *VIA_t1_cnt_hi 
                            432 ; macro call ->                     ADD_NOPS  
   00E6 12            [ 2]  433  nop 
                            434 ; macro call ->                     WAIT_BEFORE  
                            435 ; macro call ->                     WAIT3    
                            436  .globl here95
   00E7                     437 here95:              
   00E7 21 FE         [ 3]  438 					brn      here95                            ; wait 3 cycles 
                            439  .globl cont7
   00E9                     440 cont7: 
                            441 ; macro call ->                     WAIT_AFTER  
                            442 ; macro call ->                     WAIT7    
                            443 ; macro call ->                     WAIT5    
                            444 ; macro call ->                     WAIT3    
                            445  .globl here99
   00E9                     446 here99:              
   00E9 21 FE         [ 3]  447 					brn      here99                            ; wait 3 cycles 
                            448 ; macro call ->                     WAIT2    
   00EB 12            [ 2]  449  nop ;     wait 2 cycles 
                            450 ; macro call ->                     WAIT2    
   00EC 12            [ 2]  451  nop ;     wait 2 cycles 
   00ED 0F 05         [ 6]  452                     clr      *VIA_t1_cnt_hi 
                            453 ; macro call ->                     ADD_NOPS  
   00EF 12            [ 2]  454  nop 
                            455 ; macro call ->                     WAIT_BEFORE  
                            456 ; macro call ->                     WAIT3    
                            457  .globl here104
   00F0                     458 here104:              
   00F0 21 FE         [ 3]  459 					brn      here104                            ; wait 3 cycles 
                            460  .globl cont6
   00F2                     461 cont6: 
                            462 ; macro call ->                     WAIT_AFTER  
                            463 ; macro call ->                     WAIT7    
                            464 ; macro call ->                     WAIT5    
                            465 ; macro call ->                     WAIT3    
                            466  .globl here108
   00F2                     467 here108:              
   00F2 21 FE         [ 3]  468 					brn      here108                            ; wait 3 cycles 
                            469 ; macro call ->                     WAIT2    
   00F4 12            [ 2]  470  nop ;     wait 2 cycles 
                            471 ; macro call ->                     WAIT2    
   00F5 12            [ 2]  472  nop ;     wait 2 cycles 
   00F6 0F 05         [ 6]  473                     clr      *VIA_t1_cnt_hi 
                            474 ; macro call ->                     ADD_NOPS  
   00F8 12            [ 2]  475  nop 
                            476 ; macro call ->                     WAIT_BEFORE  
                            477 ; macro call ->                     WAIT3    
                            478  .globl here113
   00F9                     479 here113:              
   00F9 21 FE         [ 3]  480 					brn      here113                            ; wait 3 cycles 
                            481  .globl cont5
   00FB                     482 cont5: 
                            483 ; macro call ->                     WAIT_AFTER  
                            484 ; macro call ->                     WAIT7    
                            485 ; macro call ->                     WAIT5    
                            486 ; macro call ->                     WAIT3    
                            487  .globl here117
   00FB                     488 here117:              
   00FB 21 FE         [ 3]  489 					brn      here117                            ; wait 3 cycles 
                            490 ; macro call ->                     WAIT2    
   00FD 12            [ 2]  491  nop ;     wait 2 cycles 
                            492 ; macro call ->                     WAIT2    
   00FE 12            [ 2]  493  nop ;     wait 2 cycles 
   00FF 0F 05         [ 6]  494                     clr      *VIA_t1_cnt_hi 
                            495 ; macro call ->                     ADD_NOPS  
   0101 12            [ 2]  496  nop 
                            497 ; macro call ->                     WAIT_BEFORE  
                            498 ; macro call ->                     WAIT3    
                            499  .globl here122
   0102                     500 here122:              
   0102 21 FE         [ 3]  501 					brn      here122                            ; wait 3 cycles 
                            502  .globl cont4
   0104                     503 cont4: 
                            504 ; macro call ->                     WAIT_AFTER  
                            505 ; macro call ->                     WAIT7    
                            506 ; macro call ->                     WAIT5    
                            507 ; macro call ->                     WAIT3    
                            508  .globl here126
   0104                     509 here126:              
   0104 21 FE         [ 3]  510 					brn      here126                            ; wait 3 cycles 
                            511 ; macro call ->                     WAIT2    
   0106 12            [ 2]  512  nop ;     wait 2 cycles 
                            513 ; macro call ->                     WAIT2    
   0107 12            [ 2]  514  nop ;     wait 2 cycles 
   0108 0F 05         [ 6]  515                     clr      *VIA_t1_cnt_hi 
                            516 ; macro call ->                     ADD_NOPS  
   010A 12            [ 2]  517  nop 
                            518 ; macro call ->                     WAIT_BEFORE  
                            519 ; macro call ->                     WAIT3    
                            520  .globl here131
   010B                     521 here131:              
   010B 21 FE         [ 3]  522 					brn      here131                            ; wait 3 cycles 
                            523  .globl cont3
   010D                     524 cont3: 
                            525 ; macro call ->                     WAIT_AFTER  
                            526 ; macro call ->                     WAIT7    
                            527 ; macro call ->                     WAIT5    
                            528 ; macro call ->                     WAIT3    
                            529  .globl here135
   010D                     530 here135:              
   010D 21 FE         [ 3]  531 					brn      here135                            ; wait 3 cycles 
                            532 ; macro call ->                     WAIT2    
   010F 12            [ 2]  533  nop ;     wait 2 cycles 
                            534 ; macro call ->                     WAIT2    
   0110 12            [ 2]  535  nop ;     wait 2 cycles 
   0111 0F 05         [ 6]  536                     clr      *VIA_t1_cnt_hi 
                            537 ; macro call ->                     ADD_NOPS  
   0113 12            [ 2]  538  nop 
                            539 ; macro call ->                     WAIT_BEFORE  
                            540 ; macro call ->                     WAIT3    
                            541  .globl here140
   0114                     542 here140:              
   0114 21 FE         [ 3]  543 					brn      here140                            ; wait 3 cycles 
                            544  .globl cont2
   0116                     545 cont2: 
                            546 ; macro call ->                     WAIT_AFTER  
                            547 ; macro call ->                     WAIT7    
                            548 ; macro call ->                     WAIT5    
                            549 ; macro call ->                     WAIT3    
                            550  .globl here144
   0116                     551 here144:              
   0116 21 FE         [ 3]  552 					brn      here144                            ; wait 3 cycles 
                            553 ; macro call ->                     WAIT2    
   0118 12            [ 2]  554  nop ;     wait 2 cycles 
                            555 ; macro call ->                     WAIT2    
   0119 12            [ 2]  556  nop ;     wait 2 cycles 
   011A 0F 05         [ 6]  557                     clr      *VIA_t1_cnt_hi 
                            558 ; macro call ->                     ADD_NOPS  
   011C 12            [ 2]  559  nop 
   011D 7E 01 20      [ 4]  560                     jmp      SMVB_repeat_same 
                            561 
                            562  .globl SMVB_repeat_same
   0120                     563 SMVB_repeat_same:                                          ;#isfunction  
   0120 37 14         [ 7]  564                     pulu     b,x 
   0122 0F 05         [ 6]  565                     clr      *VIA_t1_cnt_hi 
                            566 ; macro call ->                     ADD_NOPS  
   0124 12            [ 2]  567  nop 
   0125 37 80         [ 6]  568                     pulu     pc 
                            569  .globl SMVB_continue_double
   0127                     570 SMVB_continue_double:                                      ;#isfunction  
                            571 ; macro call ->                     SET_Y_INT  
   0127 97 00         [ 4]  572                     sta      *VIA_port_b                  ; 4 
   0129 D7 01         [ 4]  573                     stb      *VIA_port_a                  ; 4 
                            574 ; macro call ->                     Y_DELAY                               ; 4 
                            575 ; macro call ->  Y_DELAY_4
   012B 12            [ 2]  576  nop 
   012C 12            [ 2]  577  nop 
                            578 ; macro call ->  ADD_BURST
                            579  
                            580 ; macro call ->  ADD_BURST
                            581  
   012D 9F 00         [ 5]  582                     stx      *VIA_port_b                  ; 5 
   012F 97 05         [ 4]  583                     sta      *VIA_t1_cnt_hi 
                            584 ; macro call ->                     ADD_NOPS  
   0131 12            [ 2]  585  nop 
   0132 7E 01 20      [ 4]  586                     jmp      SMVB_repeat_same 
                            587  .globl SMVB_continue_yd4_double
   0135                     588 SMVB_continue_yd4_double:;#isfunction 
                            589 ; macro call ->                     SET_Y_INT  
   0135 97 00         [ 4]  590                     sta      *VIA_port_b                  ; 4 
   0137 D7 01         [ 4]  591                     stb      *VIA_port_a                  ; 4 
                            592 ; macro call ->                     Y_DELAY_4                               ; 4 
   0139 12            [ 2]  593  nop 
   013A 12            [ 2]  594  nop 
                            595 ; macro call ->  ADD_BURST
                            596  
   013B 9F 00         [ 5]  597                     stx      *VIA_port_b                  ; 5 
   013D 97 05         [ 4]  598                     sta      *VIA_t1_cnt_hi 
                            599 ; macro call ->                     ADD_NOPS  
   013F 12            [ 2]  600  nop 
   0140 7E 01 20      [ 4]  601                     jmp      SMVB_repeat_same 
                            602 
                            603 
                            604  .globl SMVB_continue_yd4_octo
   0143                     605 SMVB_continue_yd4_octo:
   0143 D7 01         [ 4]  606                     stb      *VIA_port_a                  ; 4 shift not changed, move might also be a draw 
   0145 97 00         [ 4]  607                     sta      *VIA_port_b                  ; 4 
                            608 ; macro call ->                     Y_DELAY_4                             ; 4 
   0147 12            [ 2]  609  nop 
   0148 12            [ 2]  610  nop 
                            611 ; macro call ->  ADD_BURST
                            612  
   0149 9F 00         [ 5]  613                     stx      *VIA_port_b                  ; 5 
   014B 97 05         [ 4]  614                     sta      *VIA_t1_cnt_hi 
                            615 ; macro call ->                     ADD_NOPS  
   014D 12            [ 2]  616  nop 
   014E 7E 00 E9      [ 4]  617                     jmp      cont7 
                            618  .globl SMVB_continue_yd4_hex
   0151                     619 SMVB_continue_yd4_hex:
   0151 D7 01         [ 4]  620                     stb      *VIA_port_a                  ; 4 shift not changed, move might also be a draw 
   0153 97 00         [ 4]  621                     sta      *VIA_port_b                  ; 4 
                            622 ; macro call ->                     Y_DELAY_4                             ; 4 
   0155 12            [ 2]  623  nop 
   0156 12            [ 2]  624  nop 
                            625 ; macro call ->  ADD_BURST
                            626  
   0157 9F 00         [ 5]  627                     stx      *VIA_port_b                  ; 5 
   0159 97 05         [ 4]  628                     sta      *VIA_t1_cnt_hi 
                            629 ; macro call ->                     ADD_NOPS  
   015B 12            [ 2]  630  nop 
   015C 7E 00 FB      [ 4]  631                     jmp      cont5 
                            632  .globl SMVB_continue_yd4_quadro
   015F                     633 SMVB_continue_yd4_quadro:
                            634 
   015F D7 01         [ 4]  635                     stb      *VIA_port_a                  ; 4 shift not changed, move might also be a draw 
   0161 97 00         [ 4]  636                     sta      *VIA_port_b                  ; 4 
                            637 ; macro call ->                     Y_DELAY_4                             ; 4 
   0163 12            [ 2]  638  nop 
   0164 12            [ 2]  639  nop 
                            640 ; macro call ->  ADD_BURST
                            641  
   0165 9F 00         [ 5]  642                     stx      *VIA_port_b                  ; 5 
   0167 97 05         [ 4]  643                     sta      *VIA_t1_cnt_hi 
                            644 ; macro call ->                     ADD_NOPS  
   0169 12            [ 2]  645  nop 
   016A 7E 01 0D      [ 4]  646                     jmp      cont3 
                            647  .globl SMVB_continue_yd4_tripple
   016D                     648 SMVB_continue_yd4_tripple:
                            649 
   016D D7 01         [ 4]  650                     stb      *VIA_port_a                  ; 4 shift not changed, move might also be a draw 
   016F 97 00         [ 4]  651                     sta      *VIA_port_b                  ; 4 
                            652 ; macro call ->                     Y_DELAY_4                             ; 4 
   0171 12            [ 2]  653  nop 
   0172 12            [ 2]  654  nop 
                            655 ; macro call ->  ADD_BURST
                            656  
   0173 9F 00         [ 5]  657                     stx      *VIA_port_b                  ; 5 
   0175 97 05         [ 4]  658                     sta      *VIA_t1_cnt_hi 
                            659 ; macro call ->                     ADD_NOPS  
   0177 12            [ 2]  660  nop 
   0178 7E 01 16      [ 4]  661                     jmp      cont2 
                            662 
                            663 
                            664 
                            665 
                            666  .globl SMVB_startMove_yd4_single
   017B                     667 SMVB_startMove_yd4_single: ;#isfunction 
                            668  .globl SMVB_startMove_single
   017B                     669 SMVB_startMove_single:                                    ;#isfunction  
                            670 ; macro call ->                     SET_Y_INT  
   017B 97 00         [ 4]  671                     sta      *VIA_port_b                  ; 4 
   017D D7 01         [ 4]  672                     stb      *VIA_port_a                  ; 4 
                            673 ; macro call ->                     INIT_MOVE  
   017F C6 E0         [ 2]  674                     ldb      #0b11100000 
   0181 D7 0A         [ 4]  675                     stb      *VIA_shift_reg               ; 
                            676 ; macro call ->  DELAY_NONE
                            677 ; macro call ->  ADD_BURST
                            678  
   0183 9F 00         [ 5]  679                     stx      *VIA_port_b                  ; 5 
   0185 97 05         [ 4]  680                     sta      *VIA_t1_cnt_hi 
                            681 ; macro call ->                     ADD_NOPS  
   0187 12            [ 2]  682  nop 
   0188 37 94         [ 8]  683                     pulu     b,x,pc 
                            684  .globl SMVB_startMove_single_sj
   018A                     685 SMVB_startMove_single_sj:                                 ;#isfunction  
                            686 ; macro call ->                     SET_Y_INT  
   018A 97 00         [ 4]  687                     sta      *VIA_port_b                  ; 4 
   018C D7 01         [ 4]  688                     stb      *VIA_port_a                  ; 4 
   018E EE C4         [ 5]  689                     ldu      ,u 
                            690  
                            691 ; macro call ->                     INIT_MOVE_SJ  
                            692 ; macro call ->  DELAY_NONE
                            693 ; macro call ->  ADD_BURST
                            694  
   0190 9F 00         [ 5]  695                     stx      *VIA_port_b                  ; 5 
   0192 97 05         [ 4]  696                     sta      *VIA_t1_cnt_hi 
   0194 97 0A         [ 4]  697                     sta      *VIA_shift_reg               ; 
                            698 ; macro call ->                     ADD_NOPS_NOU                          ; reduced by ldu ,u - 5 cycles 
   0196 12            [ 2]  699  nop 
   0197 37 94         [ 8]  700                     pulu     b,x,pc 
                            701 
                            702  .globl SMVB_startMove_yd4_single_sj
   0199                     703 SMVB_startMove_yd4_single_sj:                                 ;#isfunction  
                            704 ; macro call ->                     SET_Y_INT  
   0199 97 00         [ 4]  705                     sta      *VIA_port_b                  ; 4 
   019B D7 01         [ 4]  706                     stb      *VIA_port_a                  ; 4 
   019D EE C4         [ 5]  707                     ldu      ,u 
                            708 ; macro call ->                     INIT_MOVE_SJ  
                            709 ; macro call ->  DELAY_NONE
                            710 ; macro call ->  ADD_BURST
                            711  
   019F 9F 00         [ 5]  712                     stx      *VIA_port_b                  ; 5 
   01A1 97 05         [ 4]  713                     sta      *VIA_t1_cnt_hi 
   01A3 97 0A         [ 4]  714                     sta      *VIA_shift_reg               ; 
                            715 ; macro call ->                     ADD_NOPS_NOU                          ; reduced by ldu ,u - 5 cycles 
   01A5 12            [ 2]  716  nop 
   01A6 37 94         [ 8]  717                     pulu     b,x,pc 
                            718 
                            719 
                            720 
                            721  .globl SMVB_startMove_yd4_double
   01A8                     722 SMVB_startMove_yd4_double:                                    ;#isfunction  
                            723  .globl SMVB_startMove_double
   01A8                     724 SMVB_startMove_double:                                    ;#isfunction  
                            725 ; macro call ->                     SET_Y_INT  
   01A8 97 00         [ 4]  726                     sta      *VIA_port_b                  ; 4 
   01AA D7 01         [ 4]  727                     stb      *VIA_port_a                  ; 4 
                            728 ; macro call ->                     INIT_MOVE  
   01AC C6 E0         [ 2]  729                     ldb      #0b11100000 
   01AE D7 0A         [ 4]  730                     stb      *VIA_shift_reg               ; 
                            731 ; macro call ->  DELAY_NONE
                            732 ; macro call ->  ADD_BURST
                            733  
   01B0 9F 00         [ 5]  734                     stx      *VIA_port_b                  ; 5 
   01B2 97 05         [ 4]  735                     sta      *VIA_t1_cnt_hi 
                            736 ; macro call ->                     ADD_NOPS  
   01B4 12            [ 2]  737  nop 
   01B5 7E 02 59      [ 4]  738                     jmp      SMVB_repeat_same2 
                            739 
                            740  .globl SMVB_startDraw_yd4_tripple
                            741  .globl SMVB_startDraw_tripple
   01B8                     742 SMVB_startDraw_yd4_tripple:
   01B8                     743 SMVB_startDraw_tripple: ;#isfunction 
                            744 ; macro call ->                     SET_Y_INT  
   01B8 97 00         [ 4]  745                     sta      *VIA_port_b                  ; 4 
   01BA D7 01         [ 4]  746                     stb      *VIA_port_a                  ; 4 
   01BC C6 01         [ 2]  747                     ldb      #SHITREG_POKE_VALUE          ; 2 
   01BE D7 0A         [ 4]  748                     stb      *VIA_shift_reg               ; 4 
                            749 ; macro call ->  DELAY_NONE
                            750 ; macro call ->  ADD_BURST
                            751  
   01C0 9F 00         [ 5]  752                     stx      *VIA_port_b                  ; 5 
   01C2 97 05         [ 4]  753                     sta      *VIA_t1_cnt_hi               ; 4 
                            754 ; macro call ->                     ADD_NOPS  
   01C4 12            [ 2]  755  nop 
   01C5 7E 01 16      [ 4]  756                     jmp      cont2 
                            757 
                            758  .globl SMVB_startDraw_double
   01C8                     759 SMVB_startDraw_double: ;#isfunction 
                            760 ; macro call ->                     SET_Y_INT  
   01C8 97 00         [ 4]  761                     sta      *VIA_port_b                  ; 4 
   01CA D7 01         [ 4]  762                     stb      *VIA_port_a                  ; 4 
   01CC C6 01         [ 2]  763                     ldb      #SHITREG_POKE_VALUE          ; 2 
   01CE D7 0A         [ 4]  764                     stb      *VIA_shift_reg               ; 4 
                            765 ; macro call ->  DELAY_NONE
                            766 ; macro call ->  ADD_BURST
                            767  
   01D0 9F 00         [ 5]  768                     stx      *VIA_port_b                  ; 5 
   01D2 97 05         [ 4]  769                     sta      *VIA_t1_cnt_hi               ; 4 
                            770 ; macro call ->                     ADD_NOPS  
   01D4 12            [ 2]  771  nop 
   01D5 7E 02 59      [ 4]  772                     jmp      SMVB_repeat_same2 
                            773  .globl SMVB_startDraw_octo
   01D8                     774 SMVB_startDraw_octo: ;#isfunction 
                            775 ; macro call ->                     SET_Y_INT  
   01D8 97 00         [ 4]  776                     sta      *VIA_port_b                  ; 4 
   01DA D7 01         [ 4]  777                     stb      *VIA_port_a                  ; 4 
   01DC C6 01         [ 2]  778                     ldb      #SHITREG_POKE_VALUE          ; 2 
   01DE D7 0A         [ 4]  779                     stb      *VIA_shift_reg               ; 4 
                            780 ; macro call ->  DELAY_NONE
                            781 ; macro call ->  ADD_BURST
                            782  
   01E0 9F 00         [ 5]  783                     stx      *VIA_port_b                  ; 5 
   01E2 97 05         [ 4]  784                     sta      *VIA_t1_cnt_hi               ; 4 
                            785 ; macro call ->                     ADD_NOPS  
   01E4 12            [ 2]  786  nop 
   01E5 7E 00 E9      [ 4]  787                     jmp      cont7 
                            788  .globl SMVB_startDraw_quadro
   01E8                     789 SMVB_startDraw_quadro: ;#isfunction 
                            790 ; macro call ->                     SET_Y_INT  
   01E8 97 00         [ 4]  791                     sta      *VIA_port_b                  ; 4 
   01EA D7 01         [ 4]  792                     stb      *VIA_port_a                  ; 4 
   01EC C6 01         [ 2]  793                     ldb      #SHITREG_POKE_VALUE          ; 2 
   01EE D7 0A         [ 4]  794                     stb      *VIA_shift_reg               ; 4 
                            795 ; macro call ->  DELAY_NONE
                            796 ; macro call ->  ADD_BURST
                            797  
   01F0 9F 00         [ 5]  798                     stx      *VIA_port_b                  ; 5 
   01F2 97 05         [ 4]  799                     sta      *VIA_t1_cnt_hi               ; 4 
                            800 ; macro call ->                     ADD_NOPS  
   01F4 12            [ 2]  801  nop 
   01F5 7E 01 0D      [ 4]  802                     jmp      cont3 
                            803 
                            804  .globl SMVB_startDraw_hex
   01F8                     805 SMVB_startDraw_hex: ;#isfunction 
                            806 ; macro call ->                     SET_Y_INT  
   01F8 97 00         [ 4]  807                     sta      *VIA_port_b                  ; 4 
   01FA D7 01         [ 4]  808                     stb      *VIA_port_a                  ; 4 
   01FC C6 01         [ 2]  809                     ldb      #SHITREG_POKE_VALUE          ; 2 
   01FE D7 0A         [ 4]  810                     stb      *VIA_shift_reg               ; 4 
                            811 ; macro call ->  DELAY_NONE
                            812 ; macro call ->  ADD_BURST
                            813  
   0200 9F 00         [ 5]  814                     stx      *VIA_port_b                  ; 5 
   0202 97 05         [ 4]  815                     sta      *VIA_t1_cnt_hi               ; 4 
                            816 ; macro call ->                     ADD_NOPS  
   0204 12            [ 2]  817  nop 
   0205 7E 00 FB      [ 4]  818                     jmp      cont5
                            819 
                            820  .globl SMVB_startMove_tripple
   0208                     821 SMVB_startMove_tripple: ;#isfunction 
                            822 ; macro call ->                     SET_Y_INT  
   0208 97 00         [ 4]  823                     sta      *VIA_port_b                  ; 4 
   020A D7 01         [ 4]  824                     stb      *VIA_port_a                  ; 4 
                            825 ; macro call ->                     INIT_MOVE  
   020C C6 E0         [ 2]  826                     ldb      #0b11100000 
   020E D7 0A         [ 4]  827                     stb      *VIA_shift_reg               ; 
                            828 ; macro call ->  DELAY_NONE
                            829 ; macro call ->  ADD_BURST
                            830  
   0210 9F 00         [ 5]  831                     stx      *VIA_port_b                  ; 5 
   0212 97 05         [ 4]  832                     sta      *VIA_t1_cnt_hi 
                            833 ; macro call ->                     ADD_NOPS  
   0214 12            [ 2]  834  nop 
   0215 20 18         [ 3]  835                     bra      move2 
                            836 
                            837  .globl SMVB_startMove_quadro
   0217                     838 SMVB_startMove_quadro: ;#isfunction 
                            839 ; macro call ->                     SET_Y_INT  
   0217 97 00         [ 4]  840                     sta      *VIA_port_b                  ; 4 
   0219 D7 01         [ 4]  841                     stb      *VIA_port_a                  ; 4 
                            842 ; macro call ->                     INIT_MOVE  
   021B C6 E0         [ 2]  843                     ldb      #0b11100000 
   021D D7 0A         [ 4]  844                     stb      *VIA_shift_reg               ; 
                            845 ; macro call ->  DELAY_NONE
                            846 ; macro call ->  ADD_BURST
                            847  
   021F 9F 00         [ 5]  848                     stx      *VIA_port_b                  ; 5 
   0221 97 05         [ 4]  849                     sta      *VIA_t1_cnt_hi 
                            850 ; macro call ->                     ADD_NOPS  
   0223 12            [ 2]  851  nop 
   0224 20 00         [ 3]  852                     bra      move3 
                            853 
                            854  .globl move3
   0226                     855 move3: 
                            856 ; macro call ->                     WAIT_AFTER  
                            857 ; macro call ->                     WAIT7    
                            858 ; macro call ->                     WAIT5    
                            859 ; macro call ->                     WAIT3    
                            860  .globl here224
   0226                     861 here224:              
   0226 21 FE         [ 3]  862 					brn      here224                            ; wait 3 cycles 
                            863 ; macro call ->                     WAIT2    
   0228 12            [ 2]  864  nop ;     wait 2 cycles 
                            865 ; macro call ->                     WAIT2    
   0229 12            [ 2]  866  nop ;     wait 2 cycles 
   022A 0F 05         [ 6]  867                     clr      *VIA_t1_cnt_hi 
                            868 ; macro call ->                     ADD_NOPS  
   022C 12            [ 2]  869  nop 
                            870 ; macro call ->                     WAIT_BEFORE  
                            871 ; macro call ->                     WAIT3    
                            872  .globl here229
   022D                     873 here229:              
   022D 21 FE         [ 3]  874 					brn      here229                            ; wait 3 cycles 
                            875  .globl move2
   022F                     876 move2: 
                            877 ; macro call ->                     WAIT_AFTER  
                            878 ; macro call ->                     WAIT7    
                            879 ; macro call ->                     WAIT5    
                            880 ; macro call ->                     WAIT3    
                            881  .globl here233
   022F                     882 here233:              
   022F 21 FE         [ 3]  883 					brn      here233                            ; wait 3 cycles 
                            884 ; macro call ->                     WAIT2    
   0231 12            [ 2]  885  nop ;     wait 2 cycles 
                            886 ; macro call ->                     WAIT2    
   0232 12            [ 2]  887  nop ;     wait 2 cycles 
   0233 0F 05         [ 6]  888                     clr      *VIA_t1_cnt_hi 
                            889 ; macro call ->                     ADD_NOPS  
   0235 12            [ 2]  890  nop 
   0236 7E 02 59      [ 4]  891                     jmp      SMVB_repeat_same2 
                            892 
                            893  .globl SMVB_startMove_octo
   0239                     894 SMVB_startMove_octo: ;#isfunction 
                            895 ; macro call ->                     SET_Y_INT  
   0239 97 00         [ 4]  896                     sta      *VIA_port_b                  ; 4 
   023B D7 01         [ 4]  897                     stb      *VIA_port_a                  ; 4 
                            898 ; macro call ->                     INIT_MOVE  
   023D C6 E0         [ 2]  899                     ldb      #0b11100000 
   023F D7 0A         [ 4]  900                     stb      *VIA_shift_reg               ; 
                            901 ; macro call ->  DELAY_NONE
                            902 ; macro call ->  ADD_BURST
                            903  
   0241 9F 00         [ 5]  904                     stx      *VIA_port_b                  ; 5 
   0243 97 05         [ 4]  905                     sta      *VIA_t1_cnt_hi 
                            906 ; macro call ->                     ADD_NOPS  
   0245 12            [ 2]  907  nop 
   0246 7E 00 E9      [ 4]  908                     jmp      cont7 
                            909  .globl SMVB_startMove_hex
   0249                     910 SMVB_startMove_hex: ;#isfunction 
                            911 ; macro call ->                     SET_Y_INT  
   0249 97 00         [ 4]  912                     sta      *VIA_port_b                  ; 4 
   024B D7 01         [ 4]  913                     stb      *VIA_port_a                  ; 4 
                            914 ; macro call ->                     INIT_MOVE  
   024D C6 E0         [ 2]  915                     ldb      #0b11100000 
   024F D7 0A         [ 4]  916                     stb      *VIA_shift_reg               ; 
                            917 ; macro call ->  DELAY_NONE
                            918 ; macro call ->  ADD_BURST
                            919  
   0251 9F 00         [ 5]  920                     stx      *VIA_port_b                  ; 5 
   0253 97 05         [ 4]  921                     sta      *VIA_t1_cnt_hi 
                            922 ; macro call ->                     ADD_NOPS  
   0255 12            [ 2]  923  nop 
   0256 7E 00 FB      [ 4]  924                     jmp      cont5
                            925 
                            926  .globl SMVB_repeat_same2
   0259                     927 SMVB_repeat_same2:                                           ;#isfunction  
   0259 37 14         [ 7]  928                     pulu     b,x 
   025B 0F 05         [ 6]  929                     clr      *VIA_t1_cnt_hi 
                            930 ; macro call ->                     ADD_NOPS  
   025D 12            [ 2]  931  nop 
   025E 37 80         [ 6]  932                     pulu     pc 
                            933  .globl SMVB_startMove_double_sj
   0260                     934 SMVB_startMove_double_sj:                                  ;#isfunction  
                            935 ; macro call ->                     SET_Y_INT  
   0260 97 00         [ 4]  936                     sta      *VIA_port_b                  ; 4 
   0262 D7 01         [ 4]  937                     stb      *VIA_port_a                  ; 4 
   0264 EE C4         [ 5]  938                     ldu      ,u 
                            939 ; macro call ->                     INIT_MOVE_SJ  
                            940 ; macro call ->  DELAY_NONE
                            941 ; macro call ->  ADD_BURST
                            942  
   0266 9F 00         [ 5]  943                     stx      *VIA_port_b                  ; 5 
   0268 97 05         [ 4]  944                     sta      *VIA_t1_cnt_hi 
   026A 97 0A         [ 4]  945                     sta      *VIA_shift_reg               ; 
                            946 ; macro call ->                     ADD_NOPS  
   026C 12            [ 2]  947  nop 
   026D 1F 88         [ 6]  948                     tfr a,a 
   026F 0F 05         [ 6]  949                     clr      *VIA_t1_cnt_hi 
                            950 ; macro call ->                     ADD_NOPS                              ; reduced by ldu ,u - 5 cycles 
   0271 12            [ 2]  951  nop 
   0272 37 94         [ 8]  952                     pulu     b,x, pc 
                            953  .globl SMVB_startMove_yStays_single
   0274                     954 SMVB_startMove_yStays_single:                              ;#isfunction  
                            955 ; macro call ->                     INIT_MOVE  
   0274 C6 E0         [ 2]  956                     ldb      #0b11100000 
   0276 D7 0A         [ 4]  957                     stb      *VIA_shift_reg               ; 
                            958 ; macro call ->  DELAY_NONE
                            959 ; macro call ->  ADD_BURST
                            960  
   0278 9F 00         [ 5]  961                     stx      *VIA_port_b                  ; 5 
   027A 97 05         [ 4]  962                     sta      *VIA_t1_cnt_hi 
                            963 ; macro call ->                     ADD_NOPS  
   027C 12            [ 2]  964  nop 
   027D 37 94         [ 8]  965                     pulu     b,x,pc 
                            966  .globl SMVB_startMove_yStays_single_sj
   027F                     967 SMVB_startMove_yStays_single_sj: 
   027F EE C4         [ 5]  968                     ldu      ,u 
                            969 ; macro call ->                     INIT_MOVE_SJ  
                            970 ; macro call ->  DELAY_NONE
                            971 ; macro call ->  ADD_BURST
                            972  
   0281 9F 00         [ 5]  973                     stx      *VIA_port_b                  ; 5 
   0283 97 05         [ 4]  974                     sta      *VIA_t1_cnt_hi 
   0285 97 0A         [ 4]  975                     sta      *VIA_shift_reg               ; 
                            976 ; macro call ->                     ADD_NOPS_NOU                          ; reduced by ldu ,u - 5 cycles 
   0287 12            [ 2]  977  nop 
   0288 37 94         [ 8]  978                     pulu     b,x,pc 
                            979 ; assuming b = 1
                            980  .globl SMVB_startDraw_yStays_single
   028A                     981 SMVB_startDraw_yStays_single:                              ;#isfunction  
   028A D7 0A         [ 4]  982                     stb      *VIA_shift_reg               ; 4 
                            983 ; macro call ->  DELAY_NONE
                            984 ; macro call ->  ADD_BURST
                            985  
   028C 9F 00         [ 5]  986                     stx      *VIA_port_b                  ; 5 
   028E 97 05         [ 4]  987                     sta      *VIA_t1_cnt_hi               ; 4 
                            988 ; macro call ->                     ADD_NOPS  
   0290 12            [ 2]  989  nop 
   0291 37 94         [ 8]  990                     pulu     b,x,pc 
                            991 ; assume b contains SHIFT
                            992 
                            993  .globl SMVB_startDraw_xyStays_single
   0293                     994 SMVB_startDraw_xyStays_single:                             ;#isfunction  
   0293 D7 0A         [ 4]  995                     stb      *VIA_shift_reg 
   0295 97 05         [ 4]  996                     sta      *VIA_t1_cnt_hi 
                            997 ; macro call ->                     ADD_NOPS  
   0297 12            [ 2]  998  nop 
   0298 37 94         [ 8]  999                     pulu     b,x,pc 
                           1000  .globl SMVB_startDraw_yStays_single_sj
   029A                    1001 SMVB_startDraw_yStays_single_sj:                           ;#isfunction  
                           1002 ;                    ldb      #SHITREG_POKE_VALUE          ; 2 
   029A D7 0A         [ 4] 1003                     stb      *VIA_shift_reg               ; 4 
                           1004 ; macro call ->  DELAY_NONE
                           1005 ; macro call ->  ADD_BURST
                           1006  
   029C 9F 00         [ 5] 1007                     stx      *VIA_port_b                  ; 5 
   029E 97 05         [ 4] 1008                     sta      *VIA_t1_cnt_hi               ; 4 
                           1009 ; macro call ->                     ADD_NOPS_NOU                          ; reduced by ldu ,u - 5 cycles 
   02A0 12            [ 2] 1010  nop 
   02A1 EE C4         [ 5] 1011                     ldu      ,u 
   02A3 37 94         [ 8] 1012                     pulu     b,x,pc 
                           1013 
                           1014 
                           1015  .globl SMVB_startDraw_yd4_double
   02A5                    1016 SMVB_startDraw_yd4_double:
                           1017 ; macro call ->                     SET_Y_INT  
   02A5 97 00         [ 4] 1018                     sta      *VIA_port_b                  ; 4 
   02A7 D7 01         [ 4] 1019                     stb      *VIA_port_a                  ; 4 
   02A9 C6 01         [ 2] 1020                     ldb      #SHITREG_POKE_VALUE          ; 2 
   02AB D7 0A         [ 4] 1021                     stb      *VIA_shift_reg               ; 4 
                           1022 ; macro call ->  DELAY_NONE
                           1023 ; macro call ->  ADD_BURST
                           1024  
   02AD 9F 00         [ 5] 1025                     stx      *VIA_port_b                  ; 5 
   02AF 97 05         [ 4] 1026                     sta      *VIA_t1_cnt_hi               ; 4 
                           1027 ; macro call ->                     ADD_NOPS  
   02B1 12            [ 2] 1028  nop 
   02B2 7E 02 59      [ 4] 1029                     jmp      SMVB_repeat_same2 
                           1030 
                           1031  .globl SMVB_startDraw_yd4_octo
   02B5                    1032 SMVB_startDraw_yd4_octo:
                           1033 ; macro call ->                     SET_Y_INT  
   02B5 97 00         [ 4] 1034                     sta      *VIA_port_b                  ; 4 
   02B7 D7 01         [ 4] 1035                     stb      *VIA_port_a                  ; 4 
   02B9 C6 01         [ 2] 1036                     ldb      #SHITREG_POKE_VALUE          ; 2 
   02BB D7 0A         [ 4] 1037                     stb      *VIA_shift_reg               ; 4 
                           1038 ; macro call ->  DELAY_NONE
                           1039 ; macro call ->  ADD_BURST
                           1040  
   02BD 9F 00         [ 5] 1041                     stx      *VIA_port_b                  ; 5 
   02BF 97 05         [ 4] 1042                     sta      *VIA_t1_cnt_hi               ; 4 
                           1043 ; macro call ->                     ADD_NOPS  
   02C1 12            [ 2] 1044  nop 
   02C2 7E 00 E9      [ 4] 1045                     jmp      cont7
                           1046 
                           1047 
                           1048  .globl SMVB_startDraw_yd4_single
   02C5                    1049 SMVB_startDraw_yd4_single:;#isfunction 
                           1050  .globl SMVB_startDraw_single
   02C5                    1051 SMVB_startDraw_single:                                    ;#isfunction  
                           1052 ; macro call ->                     SET_Y_INT  
   02C5 97 00         [ 4] 1053                     sta      *VIA_port_b                  ; 4 
   02C7 D7 01         [ 4] 1054                     stb      *VIA_port_a                  ; 4 
   02C9 C6 01         [ 2] 1055                     ldb      #SHITREG_POKE_VALUE          ; 2 
   02CB D7 0A         [ 4] 1056                     stb      *VIA_shift_reg               ; 4 
                           1057 ; macro call ->  DELAY_NONE
                           1058 ; macro call ->  ADD_BURST
                           1059  
   02CD 9F 00         [ 5] 1060                     stx      *VIA_port_b                  ; 5 
   02CF 97 05         [ 4] 1061                     sta      *VIA_t1_cnt_hi               ; 4 
                           1062 ; macro call ->                     ADD_NOPS  
   02D1 12            [ 2] 1063  nop 
   02D2 37 94         [ 8] 1064                     pulu     b,x,pc 
                           1065  .globl SMVB_startDraw_single_sj
   02D4                    1066 SMVB_startDraw_single_sj: 
                           1067 ; macro call ->                     SET_Y_INT  
   02D4 97 00         [ 4] 1068                     sta      *VIA_port_b                  ; 4 
   02D6 D7 01         [ 4] 1069                     stb      *VIA_port_a                  ; 4 
   02D8 C6 01         [ 2] 1070                     ldb      #SHITREG_POKE_VALUE          ; 2 
   02DA D7 0A         [ 4] 1071                     stb      *VIA_shift_reg               ; 4 
                           1072 ; macro call ->  DELAY_NONE
                           1073 ; macro call ->  ADD_BURST
                           1074  
   02DC 9F 00         [ 5] 1075                     stx      *VIA_port_b                  ; 5 
   02DE 97 05         [ 4] 1076                     sta      *VIA_t1_cnt_hi               ; 4 
                           1077 ; macro call ->                     ADD_NOPS_NOU                          ; reduced by ldu ,u - 5 cycles 
   02E0 12            [ 2] 1078  nop 
   02E1 EE C4         [ 5] 1079                     ldu      ,u 
   02E3 37 94         [ 8] 1080                     pulu     b,x,pc 
                           1081  .globl SMVB_startDraw_yEqx_single_sj
   02E5                    1082 SMVB_startDraw_yEqx_single_sj:                             ;#isfunction  
                           1083 ; macro call ->                     SET_Y_INT  
   02E5 97 00         [ 4] 1084                     sta      *VIA_port_b                  ; 4 
   02E7 D7 01         [ 4] 1085                     stb      *VIA_port_a                  ; 4 
   02E9 C6 01         [ 2] 1086                     ldb      #0x01 
   02EB D7 0A         [ 4] 1087                     stb      *VIA_shift_reg               ; 4 - ASSUMING SHITREG_POKE_VALUE = 1 
                           1088 ; macro call ->  DELAY_NONE
                           1089 ; macro call ->  ADD_BURST
                           1090  
   02ED D7 00         [ 4] 1091                     stb      *VIA_port_b 
   02EF 97 05         [ 4] 1092                     sta      *VIA_t1_cnt_hi 
                           1093 ; macro call ->                     ADD_NOPS_NOU                          ; reduced by ldu ,u - 5 cycles 
   02F1 12            [ 2] 1094  nop 
   02F2 EE C4         [ 5] 1095                     ldu      ,u 
   02F4 37 94         [ 8] 1096                     pulu     b,x,pc 
                           1097  .globl SMVB_startDraw_yEqx_single
   02F6                    1098 SMVB_startDraw_yEqx_single:                                ;#isfunction  
                           1099  .globl SMVB_startDraw_yd4_yEqx_single
   02F6                    1100 SMVB_startDraw_yd4_yEqx_single:                                ;#isfunction  
                           1101 ; macro call ->                     SET_Y_INT  
   02F6 97 00         [ 4] 1102                     sta      *VIA_port_b                  ; 4 
   02F8 D7 01         [ 4] 1103                     stb      *VIA_port_a                  ; 4 
   02FA C6 01         [ 2] 1104                     ldb      #0x01 
   02FC D7 0A         [ 4] 1105                     stb      *VIA_shift_reg               ; 4 - ASSUMING SHITREG_POKE_VALUE = 1 
                           1106 ; macro call ->  DELAY_NONE
                           1107 ; macro call ->  ADD_BURST
                           1108  
   02FE D7 00         [ 4] 1109                     stb      *VIA_port_b 
   0300 97 05         [ 4] 1110                     sta      *VIA_t1_cnt_hi 
                           1111 ; macro call ->                     ADD_NOPS  
   0302 12            [ 2] 1112  nop 
   0303 37 94         [ 8] 1113                     pulu     b,x,pc 
                           1114  .globl SMVB_startMove_yEqx_single
   0305                    1115 SMVB_startMove_yEqx_single:                                ;#isfunction  
                           1116 ; macro call ->                     SET_Y_INT  
   0305 97 00         [ 4] 1117                     sta      *VIA_port_b                  ; 4 
   0307 D7 01         [ 4] 1118                     stb      *VIA_port_a                  ; 4 
                           1119 ; macro call ->  Y_DELAY_HALF
                           1120 ; macro call ->  Y_DELAY_HALF_4
   0309 12            [ 2] 1121  nop 
                           1122 ; macro call ->  ADD_BURST
                           1123  
                           1124 
   030A 0C 00         [ 6] 1125                     inc      *VIA_port_b 
   030C 97 05         [ 4] 1126                     sta      *VIA_t1_cnt_hi 
                           1127 
   030E 97 0A         [ 4] 1128                     sta      *VIA_shift_reg               ; 4 
                           1129 ; macro call ->                     ADD_NOPS  
   0310 12            [ 2] 1130  nop 
   0311 37 94         [ 8] 1131                     pulu     b,x,pc 
                           1132  .globl SMVB_startMove_yd4_hex
   0313                    1133 SMVB_startMove_yd4_hex:
                           1134 ; macro call ->                     SET_Y_INT  
   0313 97 00         [ 4] 1135                     sta      *VIA_port_b                  ; 4 
   0315 D7 01         [ 4] 1136                     stb      *VIA_port_a                  ; 4 
                           1137 ; macro call ->  Y_DELAY_HALF_4
   0317 12            [ 2] 1138  nop 
                           1139 ; macro call ->  ADD_BURST
                           1140  
                           1141 
   0318 97 0A         [ 4] 1142                     sta      *VIA_shift_reg               ; 4 
                           1143 ; macro call ->  DELAY_NONE
                           1144 ; macro call ->  ADD_BURST
                           1145  
   031A 9F 00         [ 5] 1146                     stx      *VIA_port_b                  ; 5 
   031C 97 05         [ 4] 1147                     sta      *VIA_t1_cnt_hi               ; 4 
                           1148 ; macro call ->                     ADD_NOPS  
   031E 12            [ 2] 1149  nop 
   031F 7E 00 FB      [ 4] 1150                     jmp      cont5
                           1151 
                           1152  .globl SMVB_startMove_yd4_octo
   0322                    1153 SMVB_startMove_yd4_octo:
                           1154 ; macro call ->                     SET_Y_INT  
   0322 97 00         [ 4] 1155                     sta      *VIA_port_b                  ; 4 
   0324 D7 01         [ 4] 1156                     stb      *VIA_port_a                  ; 4 
                           1157 ; macro call ->  Y_DELAY_HALF_4
   0326 12            [ 2] 1158  nop 
                           1159 ; macro call ->  ADD_BURST
                           1160  
                           1161 
   0327 97 0A         [ 4] 1162                     sta      *VIA_shift_reg               ; 4 
                           1163 ; macro call ->  DELAY_NONE
                           1164 ; macro call ->  ADD_BURST
                           1165  
   0329 9F 00         [ 5] 1166                     stx      *VIA_port_b                  ; 5 
   032B 97 05         [ 4] 1167                     sta      *VIA_t1_cnt_hi               ; 4 
                           1168 ; macro call ->                     ADD_NOPS  
   032D 12            [ 2] 1169  nop 
   032E 7E 00 E9      [ 4] 1170                     jmp      cont7
                           1171  .globl SMVB_startMove_yd4_quadro
   0331                    1172 SMVB_startMove_yd4_quadro:
                           1173 ; macro call ->                     SET_Y_INT  
   0331 97 00         [ 4] 1174                     sta      *VIA_port_b                  ; 4 
   0333 D7 01         [ 4] 1175                     stb      *VIA_port_a                  ; 4 
                           1176 ; macro call ->  Y_DELAY_HALF_4
   0335 12            [ 2] 1177  nop 
                           1178 ; macro call ->  ADD_BURST
                           1179  
                           1180 
   0336 97 0A         [ 4] 1181                     sta      *VIA_shift_reg               ; 4 
                           1182 ; macro call ->  DELAY_NONE
                           1183 ; macro call ->  ADD_BURST
                           1184  
   0338 9F 00         [ 5] 1185                     stx      *VIA_port_b                  ; 5 
   033A 97 05         [ 4] 1186                     sta      *VIA_t1_cnt_hi               ; 4 
                           1187 ; macro call ->                     ADD_NOPS  
   033C 12            [ 2] 1188  nop 
   033D 7E 01 0D      [ 4] 1189                     jmp      cont3
                           1190  .globl SMVB_startMove_yd4_tripple
   0340                    1191 SMVB_startMove_yd4_tripple:
                           1192 ; macro call ->                     SET_Y_INT  
   0340 97 00         [ 4] 1193                     sta      *VIA_port_b                  ; 4 
   0342 D7 01         [ 4] 1194                     stb      *VIA_port_a                  ; 4 
                           1195 ; macro call ->  Y_DELAY_HALF_4
   0344 12            [ 2] 1196  nop 
                           1197 ; macro call ->  ADD_BURST
                           1198  
                           1199 
   0345 97 0A         [ 4] 1200                     sta      *VIA_shift_reg               ; 4 
                           1201 ; macro call ->  DELAY_NONE
                           1202 ; macro call ->  ADD_BURST
                           1203  
   0347 9F 00         [ 5] 1204                     stx      *VIA_port_b                  ; 5 
   0349 97 05         [ 4] 1205                     sta      *VIA_t1_cnt_hi               ; 4 
                           1206 ; macro call ->                     ADD_NOPS  
   034B 12            [ 2] 1207  nop 
   034C 7E 01 16      [ 4] 1208                     jmp      cont2
                           1209 
                           1210  .globl SMVB_startMove_yd4_yEqx_single
   034F                    1211 SMVB_startMove_yd4_yEqx_single:                                ;#isfunction  
                           1212 ; macro call ->                     SET_Y_INT  
   034F 97 00         [ 4] 1213                     sta      *VIA_port_b                  ; 4 
   0351 D7 01         [ 4] 1214                     stb      *VIA_port_a                  ; 4 
                           1215 ; macro call ->  Y_DELAY_HALF_4
   0353 12            [ 2] 1216  nop 
                           1217 ; macro call ->  ADD_BURST
                           1218  
                           1219 
   0354 0C 00         [ 6] 1220                     inc      *VIA_port_b 
   0356 97 05         [ 4] 1221                     sta      *VIA_t1_cnt_hi 
   0358 97 0A         [ 4] 1222                     sta      *VIA_shift_reg               ; 4 
                           1223 ; macro call ->                     ADD_NOPS  
   035A 12            [ 2] 1224  nop 
   035B 37 94         [ 8] 1225                     pulu     b,x,pc 
                           1226  .globl SMVB_startMove_xyStays_single
   035D                    1227 SMVB_startMove_xyStays_single: ;#isfunction 
   035D 97 05         [ 4] 1228                     sta      *VIA_t1_cnt_hi 
   035F D7 0A         [ 4] 1229                     stb      *VIA_shift_reg 
                           1230 ; macro call ->                     ADD_NOPS  
   0361 12            [ 2] 1231  nop 
   0362 37 94         [ 8] 1232                     pulu     b,x,pc 
                           1233 
                           1234  .globl SMVB_startMove_yEqx_single_sj
   0364                    1235 SMVB_startMove_yEqx_single_sj:                             ;#isfunction  
                           1236 ; macro call ->                     SET_Y_INT  
   0364 97 00         [ 4] 1237                     sta      *VIA_port_b                  ; 4 
   0366 D7 01         [ 4] 1238                     stb      *VIA_port_a                  ; 4 
                           1239 ; macro call ->                     WAIT2    
   0368 12            [ 2] 1240  nop ;     wait 2 cycles 
                           1241 ; macro call ->  DELAY_NONE
                           1242 ; macro call ->  ADD_BURST
                           1243  
   0369 0C 00         [ 6] 1244                     inc      *VIA_port_b 
   036B 97 05         [ 4] 1245                     sta      *VIA_t1_cnt_hi 
   036D 97 0A         [ 4] 1246                     sta      *VIA_shift_reg               ; 4 
                           1247 ; macro call ->                     ADD_NOPS_NOU                          ; reduced by ldu ,u - 5 cycles 
   036F 12            [ 2] 1248  nop 
   0370 EE C4         [ 5] 1249                     ldu      ,u 
   0372 37 94         [ 8] 1250                     pulu     b,x,pc 
                           1251  .globl SMVB_startMove_yd4_yEqx_single_sj
   0374                    1252 SMVB_startMove_yd4_yEqx_single_sj:                             ;#isfunction  
                           1253 
                           1254 ; macro call ->                     SET_Y_INT  
   0374 97 00         [ 4] 1255                     sta      *VIA_port_b                  ; 4 
   0376 D7 01         [ 4] 1256                     stb      *VIA_port_a                  ; 4 
                           1257 ; macro call ->                     WAIT2    
   0378 12            [ 2] 1258  nop ;     wait 2 cycles 
                           1259 ; macro call ->  Y_DELAY_HALF_4
   0379 12            [ 2] 1260  nop 
                           1261 ; macro call ->  ADD_BURST
                           1262  
                           1263 
   037A 0C 00         [ 6] 1264                     inc      *VIA_port_b 
   037C 97 05         [ 4] 1265                     sta      *VIA_t1_cnt_hi 
   037E 97 0A         [ 4] 1266                     sta      *VIA_shift_reg               ; 4 
                           1267 ; macro call ->                     ADD_NOPS_NOU                          ; reduced by ldu ,u - 5 cycles 
   0380 12            [ 2] 1268  nop 
   0381 EE C4         [ 5] 1269                     ldu      ,u 
   0383 37 94         [ 8] 1270                     pulu     b,x,pc 
                           1271  .globl SMVB_startMove_yd4_newY_eq_oldX_single
   0385                    1272 SMVB_startMove_yd4_newY_eq_oldX_single:
                           1273 
                           1274  .globl SMVB_startMove_newY_eq_oldX_single
   0385                    1275 SMVB_startMove_newY_eq_oldX_single:;#isfunction  
   0385 97 00         [ 4] 1276                     sta      *VIA_port_b                  ; 4 
                           1277 ; macro call ->                     INIT_MOVE  
   0387 C6 E0         [ 2] 1278                     ldb      #0b11100000 
   0389 D7 0A         [ 4] 1279                     stb      *VIA_shift_reg               ; 
                           1280 ; macro call ->  DELAY_NONE
                           1281 ; macro call ->  ADD_BURST
   038B 12            [ 2] 1282  nop ; y4d
                           1283  
   038C 9F 00         [ 5] 1284                     stx      *VIA_port_b                  ; 5 
   038E 97 05         [ 4] 1285                     sta      *VIA_t1_cnt_hi 
                           1286 ; macro call ->                     ADD_NOPS                          ; reduced by ldu ,u - 5 cycles 
   0390 12            [ 2] 1287  nop 
   0391 37 94         [ 8] 1288                     pulu     b,x,pc 
                           1289  .globl SMVB_startMove_newY_eq_oldX_single_sj
   0393                    1290 SMVB_startMove_newY_eq_oldX_single_sj: ;#isfunction  
   0393 97 00         [ 4] 1291                     sta      *VIA_port_b                  ; 4 
   0395 EE C4         [ 5] 1292                     ldu      ,u 
                           1293 ; macro call ->                     INIT_MOVE_SJ  
                           1294 ; macro call ->  DELAY_NONE
                           1295 ; macro call ->  ADD_BURST
                           1296  
   0397 9F 00         [ 5] 1297                     stx      *VIA_port_b                  ; 5 
   0399 97 05         [ 4] 1298                     sta      *VIA_t1_cnt_hi 
   039B 97 0A         [ 4] 1299                     sta      *VIA_shift_reg               ; 
                           1300 ; macro call ->                     ADD_NOPS_NOU                          ; reduced by ldu ,u - 5 cycles 
   039D 12            [ 2] 1301  nop 
   039E 37 94         [ 8] 1302                     pulu     b,x,pc 
                           1303  .globl SMVB_startDraw_newY_eq_oldX_single
   03A0                    1304 SMVB_startDraw_newY_eq_oldX_single:                       ;#isfunction  
   03A0 97 00         [ 4] 1305                     sta      *VIA_port_b                  ; 4 
   03A2 C6 01         [ 2] 1306                     ldb      #SHITREG_POKE_VALUE 
   03A4 D7 0A         [ 4] 1307                     stb      *VIA_shift_reg               ; 4 
                           1308 ; macro call ->  DELAY_NONE
                           1309 ; macro call ->  ADD_BURST
                           1310  
   03A6 9F 00         [ 5] 1311                     stx      *VIA_port_b                  ; 5 
   03A8 97 05         [ 4] 1312                     sta      *VIA_t1_cnt_hi 
                           1313 ; macro call ->                     ADD_NOPS  
   03AA 12            [ 2] 1314  nop 
   03AB 37 94         [ 8] 1315                     pulu     b,x,pc 
                           1316  .globl SMVB_startDraw_newY_eq_oldX_single_sj
   03AD                    1317 SMVB_startDraw_newY_eq_oldX_single_sj:                    ;#isfunction  
   03AD 97 00         [ 4] 1318                     sta      *VIA_port_b                  ; 4 
   03AF C6 01         [ 2] 1319                     ldb      #SHITREG_POKE_VALUE 
   03B1 D7 0A         [ 4] 1320                     stb      *VIA_shift_reg               ; 4 
                           1321 ; macro call ->  DELAY_NONE
                           1322 ; macro call ->  ADD_BURST
                           1323  
   03B3 9F 00         [ 5] 1324                     stx      *VIA_port_b                  ; 5 
   03B5 97 05         [ 4] 1325                     sta      *VIA_t1_cnt_hi 
                           1326 ; macro call ->                     ADD_NOPS_NOU                          ; reduced by ldu ,u - 5 cycles 
   03B7 12            [ 2] 1327  nop 
   03B8 EE C4         [ 5] 1328                     ldu      ,u 
   03BA 37 94         [ 8] 1329                     pulu     b,x,pc 
                           1330 
                           1331 
                           1332  .globl SMVB_lastDraw_rts                                         ;#isfunction  
                           1333  .globl SMVB_FlagWait
   03BC                    1334 SMVB_lastDraw_rts:
   03BC                    1335 SMVB_FlagWait: 
   03BC D5 0D         [ 4] 1336                     bitb     *VIA_int_flags 
   03BE 27 FC         [ 3] 1337                     beq      SMVB_FlagWait 
   03C0 97 0A         [ 4] 1338                     sta      *VIA_shift_reg 
                           1339  .globl SMVB_rts
   03C2                    1340 SMVB_rts:                                                 ;#isfunction  
   03C2 C6 80         [ 2] 1341                     ldb      #0x80
   03C4 86 CC         [ 2] 1342                     LDA      #0xCC 
   03C6 B7 D0 0C      [ 5] 1343                     STA      VIA_cntl                     ;/BLANK low and /ZERO low 
   03C9 F7 D0 04      [ 5] 1344                     stB      VIA_t1_cnt_lo 
                           1345 ; and ensures integrators are clean (good positioning!)
                           1346 ;                    ldd      #0 
   03CC 9F 00         [ 5] 1347                     stx      *VIA_port_b 
                           1348 ; RTS for title!
                           1349 ;                    puls     u,pc                         ; (D = y,x, pc = next object) 
   03CE 39            [ 5] 1350                     rts      
                           1351 
                           1352 ;// TODO CHECK WITH SHIELD + CO
                           1353  .globl SMVB_lastDraw_rts_stay
   03CF                    1354 SMVB_lastDraw_rts_stay:                                    ;#isfunction  
                           1355 ;                    SET_Y_INT  
                           1356 ;                    Y_DELAY_HALF                          ; 4 
                           1357 ;                    ldd      #0x40E0 
                           1358 ;                    stx      <VIA_port_b                  ; 5 
                           1359 ;                    clr      <VIA_t1_cnt_hi 
                           1360 ;                    ADD_NOPS  
   03CF 4F            [ 2] 1361  clra
                           1362  .globl SMVB_FlagWait3
   03D0                    1363 SMVB_FlagWait3:                                           ;#isfunction  
   03D0 D5 0D         [ 4] 1364                     bitb     *VIA_int_flags 
   03D2 27 FC         [ 3] 1365                     beq      SMVB_FlagWait3 
   03D4 97 0A         [ 4] 1366                     sta      *VIA_shift_reg 
   03D6 12            [ 2] 1367  nop 
   03D7 12            [ 2] 1368  nop 
                           1369 ;                    rts      
   03D8 35 C0         [ 7] 1370                     puls     u,pc                         ; (D = y,x, pc = next object) 
                           1371 
                           1372  .globl SMVB_lastMove_rts_stay
   03DA                    1373 SMVB_lastMove_rts_stay:                                    ;#isfunction  
   03DA C6 40         [ 2] 1374                     ldb      #0x40 
                           1375  .globl SMVB_FlagWait3_2
   03DC                    1376 SMVB_FlagWait3_2: 
   03DC D5 0D         [ 4] 1377                     bitb     *VIA_int_flags 
   03DE 27 FC         [ 3] 1378                     beq      SMVB_FlagWait3_2 
   03E0 97 0A         [ 4] 1379                     sta      *VIA_shift_reg 
   03E2 35 C0         [ 7] 1380                     puls     u,pc                         ; (D = y,x, pc = next object) 
                           1381 
                           1382 ; todo 
                           1383 ; last draw could contain 0xF in A
                           1384 ; than load not needed - attention 
                           1385 ; when cycles are not done for load, than shift value might be needed 2 higher!
                           1386 ; also in X could be some sensible value in X for one of the other 
                           1387  .globl SMVB_lastDraw_rts2
   03E4                    1388 SMVB_lastDraw_rts2:                                        ;#isfunction  
                           1389 ;                    ldb      #0xf0 
   03E4 12            [ 2] 1390  nop 
   03E5 D7 0A         [ 4] 1391                     stb      *VIA_shift_reg 
   03E7 86 80         [ 2] 1392                     lda      #0x80
   03E9 97 04         [ 4] 1393                     sta      *VIA_t1_cnt_lo 
                           1394 ; extended on purpose to gain one cycle of time
                           1395 ; to reset to 
                           1396 ; a) swithc light off before zeroing
                           1397 ; b) zero
                           1398  .globl SMVB_rts2
   03EB                    1399 SMVB_rts2:                                                ;#isfunction  
   03EB C6 CC         [ 2] 1400                     ldb      #0xcc 
   03ED F7 D0 0C      [ 5] 1401                     STb      VIA_cntl                    ;/BLANK low and /ZERO low 
   03F0 BF D0 00      [ 6] 1402                     stx      VIA_port_b 
                           1403 ; nop 10
   03F3 35 C0         [ 7] 1404                     puls     u,pc                         ; (D = y,x, pc = next object) 
                           1405 
                           1406 
                           1407 
                           1408 
                           1409  .globl __SMVB_sceneData
   03F5                    1410 __SMVB_sceneData:
   03F5 03 FD              1411  .word _telengard_0 ; list of all single vectorlists in this
   03F7 05 18              1412  .word _telengard_1
   03F9 06 49              1413  .word _telengard_2
   03FB 00 00              1414  .word 0
                           1415 
                           1416  .globl _telengard_0
   03FD                    1417 _telengard_0:
   03FD 68 01 85           1418 	.byte  0x68, 0x01, -0x7B
   0400 00 DC              1419 	.word SMVB_continue_octo
   0402 0A 01 50           1420 	.byte  0x0A, 0x01,  0x50
   0405 02 C5              1421 	.word SMVB_startDraw_yd4_single
   0407 07 01 5F           1422 	.byte  0x07, 0x01,  0x5F
   040A 01 27              1423 	.word SMVB_continue_double
   040C 00 01 46           1424 	.byte  0x00, 0x01,  0x46
   040F 00 23              1425 	.word SMVB_continue7_single
   0411 FB 01 5A           1426 	.byte -0x05, 0x01,  0x5A
   0414 F6 01 7D           1427 	.byte -0x0A, 0x01,  0x7D
   0417 DD 01 F1           1428 	.byte -0x23, 0x01, -0x0F
   041A 19 01 CA           1429 	.byte  0x19, 0x01, -0x36
   041D 00 01 B5           1430 	.byte  0x00, 0x01, -0x4B
   0420 F6 01 A6           1431 	.byte -0x0A, 0x01, -0x5A
   0423 D3 01 E7           1432 	.byte -0x2D, 0x01, -0x19
   0426 00 30              1433 	.word SMVB_continue6_single
   0428 BA 01 0A           1434 	.byte -0x46, 0x01,  0x0A
   042B C9 01 00           1435 	.byte -0x37, 0x01,  0x00
   042E BF 01 0A           1436 	.byte -0x41, 0x01,  0x0A
   0431 A1 01 05           1437 	.byte -0x5F, 0x01,  0x05
   0434 A6 01 0A           1438 	.byte -0x5A, 0x01,  0x0A
   0437 AE 01 05           1439 	.byte -0x52, 0x01,  0x05
   043A 01 27              1440 	.word SMVB_continue_double
   043C 9C 01 00           1441 	.byte -0x64, 0x01,  0x00
   043F 00 C0              1442 	.word SMVB_continue_quadro
   0441 D3 01 F6           1443 	.byte -0x2D, 0x01, -0x0A
   0444 00 4A              1444 	.word SMVB_continue4_single
   0446 DD 01 E7           1445 	.byte -0x23, 0x01, -0x19
   0449 4B 01 DD           1446 	.byte  0x4B, 0x01, -0x23
   044C 5F 01 0F           1447 	.byte  0x5F, 0x01,  0x0F
   044F 4D 01 00           1448 	.byte  0x4D, 0x01,  0x00
   0452 01 27              1449 	.word SMVB_continue_double
   0454 52 01 05           1450 	.byte  0x52, 0x01,  0x05
   0457 01 27              1451 	.word SMVB_continue_double
   0459 56 01 FD           1452 	.byte  0x56, 0x01, -0x03
   045C 00 B2              1453 	.word SMVB_continue_tripple
   045E 6E 01 F6           1454 	.byte  0x6E, 0x01, -0x0A
   0461 00 64              1455 	.word SMVB_continue2_single
   0463 73 01 FB           1456 	.byte  0x73, 0x01, -0x05
   0466 2D 01 F6           1457 	.byte  0x2D, 0x01, -0x0A
   0469 00 7E              1458 	.word SMVB_continue_yd4_single
   046B 23 01 E2           1459 	.byte  0x23, 0x01, -0x1E
   046E 00 3D              1460 	.word SMVB_continue5_single
   0470 0A 01 A6           1461 	.byte  0x0A, 0x01, -0x5A
   0473 F6 01 A1           1462 	.byte -0x0A, 0x01, -0x5F
   0476 E7 01 D8           1463 	.byte -0x19, 0x01, -0x28
   0479 2D 01 FB           1464 	.byte  0x2D, 0x01, -0x05
   047C 07 01 68           1465 	.byte  0x07, 0x01,  0x68
   047F 02 49              1466 	.word SMVB_startMove_hex
   0481 DD 01 E2           1467 	.byte -0x23, 0x01, -0x1E
   0484 02 C5              1468 	.word SMVB_startDraw_single
   0486 88 01 E7           1469 	.byte -0x78, 0x01, -0x19
   0489 00 7E              1470 	.word SMVB_continue_yd4_single
   048B D3 01 E2           1471 	.byte -0x2D, 0x01, -0x1E
   048E 00 3D              1472 	.word SMVB_continue5_single
   0490 41 01 F1           1473 	.byte  0x41, 0x01, -0x0F
   0493 23 01 E2           1474 	.byte  0x23, 0x01, -0x1E
   0496 14 01 CE           1475 	.byte  0x14, 0x01, -0x32
   0499 EC 01 AB           1476 	.byte -0x14, 0x01, -0x55
   049C 97 01 F1           1477 	.byte -0x69, 0x01, -0x0F
   049F 00 7E              1478 	.word SMVB_continue_yd4_single
   04A1 AE 01 00           1479 	.byte -0x52, 0x01,  0x00
   04A4 01 27              1480 	.word SMVB_continue_double
   04A6 B0 01 0A           1481 	.byte -0x50, 0x01,  0x0A
   04A9 00 71              1482 	.word SMVB_continue_single
   04AB B3 01 0C           1483 	.byte -0x4D, 0x01,  0x0C
   04AE 01 27              1484 	.word SMVB_continue_double
   04B0 AB 01 05           1485 	.byte -0x55, 0x01,  0x05
   04B3 01 27              1486 	.word SMVB_continue_double
   04B5 9B 01 FE           1487 	.byte -0x65, 0x01, -0x02
   04B8 00 DC              1488 	.word SMVB_continue_octo
   04BA 5A 01 E9           1489 	.byte  0x5A, 0x01, -0x17
   04BD 00 B2              1490 	.word SMVB_continue_tripple
   04BF 3C 01 E2           1491 	.byte  0x3C, 0x01, -0x1E
   04C2 00 71              1492 	.word SMVB_continue_single
   04C4 6B 01 C7           1493 	.byte  0x6B, 0x01, -0x39
   04C7 01 27              1494 	.word SMVB_continue_double
   04C9 14 01 37           1495 	.byte  0x14, 0x01,  0x37
   04CC 00 7E              1496 	.word SMVB_continue_yd4_single
   04CE 64 01 0F           1497 	.byte  0x64, 0x01,  0x0F
   04D1 00 71              1498 	.word SMVB_continue_single
   04D3 64 01 00           1499 	.byte  0x64, 0x01,  0x00
   04D6 00 C0              1500 	.word SMVB_continue_quadro
   04D8 65 01 FB           1501 	.byte  0x65, 0x01, -0x05
   04DB 00 B2              1502 	.word SMVB_continue_tripple
   04DD 64 01 00           1503 	.byte  0x64, 0x01,  0x00
   04E0 00 71              1504 	.word SMVB_continue_single
   04E2 0F 01 B5           1505 	.byte  0x0F, 0x01, -0x4B
   04E5 00 7E              1506 	.word SMVB_continue_yd4_single
   04E7 F1 01 C4           1507 	.byte -0x0F, 0x01, -0x3C
   04EA 00 23              1508 	.word SMVB_continue7_single
   04EC E2 01 DD           1509 	.byte -0x1E, 0x01, -0x23
   04EF D3 01 EC           1510 	.byte -0x2D, 0x01, -0x14
   04F2 D3 01 14           1511 	.byte -0x2D, 0x01,  0x14
   04F5 50 01 B5           1512 	.byte  0x50, 0x01, -0x4B
   04F8 55 01 DD           1513 	.byte  0x55, 0x01, -0x23
   04FB 32 01 DD           1514 	.byte  0x32, 0x01, -0x23
   04FE 28 01 E2           1515 	.byte  0x28, 0x01, -0x1E
   0501 00 64              1516 	.word SMVB_continue2_single
   0503 F6 01 37           1517 	.byte -0x0A, 0x01,  0x37
   0506 01 01 6E           1518 	.byte  0x01, 0x01,  0x6E
   0509 00 CE              1519 	.word SMVB_continue_hex
   050B 0F 01 2D           1520 	.byte  0x0F, 0x01,  0x2D
   050E 00 64              1521 	.word SMVB_continue2_single
   0510 DD 01 FB           1522 	.byte -0x23, 0x01, -0x05
   0513 40 00 00           1523 	.byte  0x40, 0x00,  0x00
   0516 03 BC              1524 	.word SMVB_lastDraw_rts
                           1525  .globl _telengard_1
   0518                    1526 _telengard_1:
   0518 53 01 99           1527 	.byte  0x53, 0x01, -0x67
   051B 00 CE              1528 	.word SMVB_continue_hex
   051D 4B 01 0A           1529 	.byte  0x4B, 0x01,  0x0A
   0520 02 C5              1530 	.word SMVB_startDraw_single
   0522 37 01 1E           1531 	.byte  0x37, 0x01,  0x1E
   0525 00 64              1532 	.word SMVB_continue2_single
   0527 46 01 5E           1533 	.byte  0x46, 0x01,  0x5E
   052A 9C 01 28           1534 	.byte -0x64, 0x01,  0x28
   052D 00 7E              1535 	.word SMVB_continue_yd4_single
   052F 14 01 D3           1536 	.byte  0x14, 0x01, -0x2D
   0532 00 4A              1537 	.word SMVB_continue4_single
   0534 E2 01 D9           1538 	.byte -0x1E, 0x01, -0x27
   0537 C4 01 F1           1539 	.byte -0x3C, 0x01, -0x0F
   053A 23 01 3B           1540 	.byte  0x23, 0x01,  0x3B
   053D C9 01 14           1541 	.byte -0x37, 0x01,  0x14
   0540 00 7E              1542 	.word SMVB_continue_yd4_single
   0542 E7 01 CA           1543 	.byte -0x19, 0x01, -0x36
   0545 00 4A              1544 	.word SMVB_continue4_single
   0547 DD 01 F6           1545 	.byte -0x23, 0x01, -0x0A
   054A 05 01 36           1546 	.byte  0x05, 0x01,  0x36
   054D 28 01 1E           1547 	.byte  0x28, 0x01,  0x1E
   0550 BF 01 2D           1548 	.byte -0x41, 0x01,  0x2D
   0553 00 7E              1549 	.word SMVB_continue_yd4_single
   0555 D3 01 9C           1550 	.byte -0x2D, 0x01, -0x64
   0558 00 4A              1551 	.word SMVB_continue4_single
   055A 00 01 CA           1552 	.byte  0x00, 0x01, -0x36
   055D 23 01 D3           1553 	.byte  0x23, 0x01, -0x2D
   0560 50 01 EC           1554 	.byte  0x50, 0x01, -0x14
   0563 2D 01 63           1555 	.byte  0x2D, 0x01,  0x63
   0566 02 08              1556 	.word SMVB_startMove_tripple
   0568 A6 01 00           1557 	.byte -0x5A, 0x01,  0x00
   056B 02 A5              1558 	.word SMVB_startDraw_yd4_double
   056D 37 01 3C           1559 	.byte  0x37, 0x01,  0x3C
   0570 00 64              1560 	.word SMVB_continue2_single
   0572 37 01 0A           1561 	.byte  0x37, 0x01,  0x0A
   0575 B0 01 1E           1562 	.byte -0x50, 0x01,  0x1E
   0578 00 7E              1563 	.word SMVB_continue_yd4_single
   057A 9C 01 19           1564 	.byte -0x64, 0x01,  0x19
   057D 00 30              1565 	.word SMVB_continue6_single
   057F 0A 01 A6           1566 	.byte  0x0A, 0x01, -0x5A
   0582 F6 01 B0           1567 	.byte -0x0A, 0x01, -0x50
   0585 37 01 F6           1568 	.byte  0x37, 0x01, -0x0A
   0588 3C 01 00           1569 	.byte  0x3C, 0x01,  0x00
   058B 6E 01 EC           1570 	.byte  0x6E, 0x01, -0x14
   058E 37 01 E7           1571 	.byte  0x37, 0x01, -0x19
   0591 00 7E              1572 	.word SMVB_continue_yd4_single
   0593 2D 01 50           1573 	.byte  0x2D, 0x01,  0x50
   0596 00 71              1574 	.word SMVB_continue_single
   0598 B5 01 14           1575 	.byte -0x4B, 0x01,  0x14
   059B 00 7E              1576 	.word SMVB_continue_yd4_single
   059D 02 01 6C           1577 	.byte  0x02, 0x01,  0x6C
   05A0 02 17              1578 	.word SMVB_startMove_quadro
   05A2 41 01 EC           1579 	.byte  0x41, 0x01, -0x14
   05A5 02 C5              1580 	.word SMVB_startDraw_single
   05A7 00 01 4B           1581 	.byte  0x00, 0x01,  0x4B
   05AA 00 7E              1582 	.word SMVB_continue_yd4_single
   05AC 92 01 00           1583 	.byte -0x6E, 0x01,  0x00
   05AF 00 7E              1584 	.word SMVB_continue_yd4_single
   05B1 A6 01 F6           1585 	.byte -0x5A, 0x01, -0x0A
   05B4 00 30              1586 	.word SMVB_continue6_single
   05B6 BA 01 19           1587 	.byte -0x46, 0x01,  0x19
   05B9 C9 01 1E           1588 	.byte -0x37, 0x01,  0x1E
   05BC 00 01 D3           1589 	.byte  0x00, 0x01, -0x2D
   05BF 46 01 BF           1590 	.byte  0x46, 0x01, -0x41
   05C2 55 01 C9           1591 	.byte  0x55, 0x01, -0x37
   05C5 D3 01 F6           1592 	.byte -0x2D, 0x01, -0x0A
   05C8 00 7E              1593 	.word SMVB_continue_yd4_single
   05CA D3 01 00           1594 	.byte -0x2D, 0x01,  0x00
   05CD 00 23              1595 	.word SMVB_continue7_single
   05CF BF 01 1E           1596 	.byte -0x41, 0x01,  0x1E
   05D2 00 01 BF           1597 	.byte  0x00, 0x01, -0x41
   05D5 19 01 EC           1598 	.byte  0x19, 0x01, -0x14
   05D8 E7 01 BF           1599 	.byte -0x19, 0x01, -0x41
   05DB 00 01 D3           1600 	.byte  0x00, 0x01, -0x2D
   05DE 19 01 CE           1601 	.byte  0x19, 0x01, -0x32
   05E1 28 01 E2           1602 	.byte  0x28, 0x01, -0x1E
   05E4 00 30              1603 	.word SMVB_continue6_single
   05E6 46 01 F1           1604 	.byte  0x46, 0x01, -0x0F
   05E9 37 01 05           1605 	.byte  0x37, 0x01,  0x05
   05EC 37 01 1E           1606 	.byte  0x37, 0x01,  0x1E
   05EF 2D 01 2D           1607 	.byte  0x2D, 0x01,  0x2D
   05F2 19 01 3C           1608 	.byte  0x19, 0x01,  0x3C
   05F5 BA 01 28           1609 	.byte -0x46, 0x01,  0x28
   05F8 00 7E              1610 	.word SMVB_continue_yd4_single
   05FA F6 01 B5           1611 	.byte -0x0A, 0x01, -0x4B
   05FD 00 4A              1612 	.word SMVB_continue4_single
   05FF D3 01 DD           1613 	.byte -0x2D, 0x01, -0x23
   0602 DD 01 F6           1614 	.byte -0x23, 0x01, -0x0A
   0605 19 01 4B           1615 	.byte  0x19, 0x01,  0x4B
   0608 D3 01 0F           1616 	.byte -0x2D, 0x01,  0x0F
   060B 00 7E              1617 	.word SMVB_continue_yd4_single
   060D E7 01 D3           1618 	.byte -0x19, 0x01, -0x2D
   0610 00 4A              1619 	.word SMVB_continue4_single
   0612 D8 01 E7           1620 	.byte -0x28, 0x01, -0x19
   0615 FB 01 2D           1621 	.byte -0x05, 0x01,  0x2D
   0618 32 01 2D           1622 	.byte  0x32, 0x01,  0x2D
   061B C4 01 23           1623 	.byte -0x3C, 0x01,  0x23
   061E 00 7E              1624 	.word SMVB_continue_yd4_single
   0620 2D 01 0F           1625 	.byte  0x2D, 0x01,  0x0F
   0623 00 4A              1626 	.word SMVB_continue4_single
   0625 64 01 05           1627 	.byte  0x64, 0x01,  0x05
   0628 3C 01 F6           1628 	.byte  0x3C, 0x01, -0x0A
   062B 41 01 E2           1629 	.byte  0x41, 0x01, -0x1E
   062E 00 01 46           1630 	.byte  0x00, 0x01,  0x46
   0631 00 7E              1631 	.word SMVB_continue_yd4_single
   0633 D3 01 0F           1632 	.byte -0x2D, 0x01,  0x0F
   0636 00 3D              1633 	.word SMVB_continue5_single
   0638 D3 01 0A           1634 	.byte -0x2D, 0x01,  0x0A
   063B D3 01 2D           1635 	.byte -0x2D, 0x01,  0x2D
   063E 2D 01 14           1636 	.byte  0x2D, 0x01,  0x14
   0641 19 01 F6           1637 	.byte  0x19, 0x01, -0x0A
   0644 40 00 00           1638 	.byte  0x40, 0x00,  0x00
   0647 03 BC              1639 	.word SMVB_lastDraw_rts
                           1640  .globl _telengard_2
   0649                    1641 _telengard_2:
   0649 62 01 64           1642 	.byte  0x62, 0x01,  0x64
   064C 00 C0              1643 	.word SMVB_continue_quadro
   064E F7 01 BA           1644 	.byte -0x09, 0x01, -0x46
   0651 02 C5              1645 	.word SMVB_startDraw_yd4_single
   0653 09 01 BA           1646 	.byte  0x09, 0x01, -0x46
   0656 00 23              1647 	.word SMVB_continue7_single
   0658 37 01 CA           1648 	.byte  0x37, 0x01, -0x36
   065B 45 01 EC           1649 	.byte  0x45, 0x01, -0x14
   065E 5A 01 14           1650 	.byte  0x5A, 0x01,  0x14
   0661 2D 01 23           1651 	.byte  0x2D, 0x01,  0x23
   0664 19 01 22           1652 	.byte  0x19, 0x01,  0x22
   0667 1E 01 37           1653 	.byte  0x1E, 0x01,  0x37
   066A DA 01 11           1654 	.byte -0x26, 0x01,  0x11
   066D 00 7E              1655 	.word SMVB_continue_yd4_single
   066F DB 01 12           1656 	.byte -0x25, 0x01,  0x12
   0672 00 23              1657 	.word SMVB_continue7_single
   0674 00 01 C9           1658 	.byte  0x00, 0x01, -0x37
   0677 D3 01 D3           1659 	.byte -0x2D, 0x01, -0x2D
   067A CE 01 F2           1660 	.byte -0x32, 0x01, -0x0E
   067D C0 01 09           1661 	.byte -0x40, 0x01,  0x09
   0680 E7 01 3C           1662 	.byte -0x19, 0x01,  0x3C
   0683 2D 01 0A           1663 	.byte  0x2D, 0x01,  0x0A
   0686 0F 01 D3           1664 	.byte  0x0F, 0x01, -0x2D
   0689 00 64              1665 	.word SMVB_continue2_single
   068B 36 01 46           1666 	.byte  0x36, 0x01,  0x46
   068E BB 01 1E           1667 	.byte -0x45, 0x01,  0x1E
   0691 00 7E              1668 	.word SMVB_continue_yd4_single
   0693 BF 01 0F           1669 	.byte -0x41, 0x01,  0x0F
   0696 00 23              1670 	.word SMVB_continue7_single
   0698 5A 01 2D           1671 	.byte  0x5A, 0x01,  0x2D
   069B 50 01 1E           1672 	.byte  0x50, 0x01,  0x1E
   069E 4B 01 0F           1673 	.byte  0x4B, 0x01,  0x0F
   06A1 2D 01 F1           1674 	.byte  0x2D, 0x01, -0x0F
   06A4 00 01 69           1675 	.byte  0x00, 0x01,  0x69
   06A7 D3 01 FB           1676 	.byte -0x2D, 0x01, -0x05
   06AA 88 01 23           1677 	.byte -0x78, 0x01,  0x23
   06AD 00 7E              1678 	.word SMVB_continue_yd4_single
   06AF 8E 01 19           1679 	.byte -0x72, 0x01,  0x19
   06B2 00 64              1680 	.word SMVB_continue2_single
   06B4 68 01 23           1681 	.byte  0x68, 0x01,  0x23
   06B7 41 01 00           1682 	.byte  0x41, 0x01,  0x00
   06BA 01 27              1683 	.word SMVB_continue_double
   06BC 23 01 F1           1684 	.byte  0x23, 0x01, -0x0F
   06BF 00 23              1685 	.word SMVB_continue7_single
   06C1 00 01 50           1686 	.byte  0x00, 0x01,  0x50
   06C4 EC 01 46           1687 	.byte -0x14, 0x01,  0x46
   06C7 C9 01 2D           1688 	.byte -0x37, 0x01,  0x2D
   06CA D3 01 00           1689 	.byte -0x2D, 0x01,  0x00
   06CD DD 01 E7           1690 	.byte -0x23, 0x01, -0x19
   06D0 C5 01 23           1691 	.byte -0x3B, 0x01,  0x23
   06D3 B5 01 1E           1692 	.byte -0x4B, 0x01,  0x1E
   06D6 00 64              1693 	.word SMVB_continue2_single
   06D8 23 01 0F           1694 	.byte  0x23, 0x01,  0x0F
   06DB 68 01 FB           1695 	.byte  0x68, 0x01, -0x05
   06DE 01 27              1696 	.word SMVB_continue_double
   06E0 2D 01 FB           1697 	.byte  0x2D, 0x01, -0x05
   06E3 00 7E              1698 	.word SMVB_continue_yd4_single
   06E5 00 01 50           1699 	.byte  0x00, 0x01,  0x50
   06E8 00 64              1700 	.word SMVB_continue2_single
   06EA D3 01 50           1701 	.byte -0x2D, 0x01,  0x50
   06ED 88 01 37           1702 	.byte -0x78, 0x01,  0x37
   06F0 00 7E              1703 	.word SMVB_continue_yd4_single
   06F2 CF 01 0A           1704 	.byte -0x31, 0x01,  0x0A
   06F5 00 57              1705 	.word SMVB_continue3_single
   06F7 BF 01 EC           1706 	.byte -0x41, 0x01, -0x14
   06FA D3 01 DD           1707 	.byte -0x2D, 0x01, -0x23
   06FD 00 01 AA           1708 	.byte  0x00, 0x01, -0x56
   0700 00 B2              1709 	.word SMVB_continue_tripple
   0702 2D 01 05           1710 	.byte  0x2D, 0x01,  0x05
   0705 00 4A              1711 	.word SMVB_continue4_single
   0707 23 01 FB           1712 	.byte  0x23, 0x01, -0x05
   070A 2D 01 E2           1713 	.byte  0x2D, 0x01, -0x1E
   070D 13 01 D3           1714 	.byte  0x13, 0x01, -0x2D
   0710 92 01 00           1715 	.byte -0x6E, 0x01,  0x00
   0713 00 7E              1716 	.word SMVB_continue_yd4_single
   0715 DD 01 14           1717 	.byte -0x23, 0x01,  0x14
   0718 00 71              1718 	.word SMVB_continue_single
   071A 00 01 95           1719 	.byte  0x00, 0x01, -0x6B
   071D 01 27              1720 	.word SMVB_continue_double
   071F 23 01 20           1721 	.byte  0x23, 0x01,  0x20
   0722 00 23              1722 	.word SMVB_continue7_single
   0724 2D 01 07           1723 	.byte  0x2D, 0x01,  0x07
   0727 2D 01 FB           1724 	.byte  0x2D, 0x01, -0x05
   072A 00 01 B0           1725 	.byte  0x00, 0x01, -0x50
   072D DD 01 F6           1726 	.byte -0x23, 0x01, -0x0A
   0730 D3 01 00           1727 	.byte -0x2D, 0x01,  0x00
   0733 D3 01 0F           1728 	.byte -0x2D, 0x01,  0x0F
   0736 09 01 A6           1729 	.byte  0x09, 0x01, -0x5A
   0739 00 71              1730 	.word SMVB_continue_single
   073B 0A 01 60           1731 	.byte  0x0A, 0x01,  0x60
   073E 02 49              1732 	.word SMVB_startMove_hex
   0740 68 01 F6           1733 	.byte  0x68, 0x01, -0x0A
   0743 01 C8              1734 	.word SMVB_startDraw_double
   0745 D3 01 2D           1735 	.byte -0x2D, 0x01,  0x2D
   0748 00 7E              1736 	.word SMVB_continue_yd4_single
   074A B5 01 14           1737 	.byte -0x4B, 0x01,  0x14
   074D 00 57              1738 	.word SMVB_continue3_single
   074F C5 01 00           1739 	.byte -0x3B, 0x01,  0x00
   0752 E2 01 D3           1740 	.byte -0x1E, 0x01, -0x2D
   0755 6E 01 90           1741 	.byte  0x6E, 0x01, -0x70
   0758 01 A8              1742 	.word SMVB_startMove_double
   075A D8 01 19           1743 	.byte -0x28, 0x01,  0x19
   075D 02 C5              1744 	.word SMVB_startDraw_yd4_single
   075F D3 01 F6           1745 	.byte -0x2D, 0x01, -0x0A
   0762 00 57              1746 	.word SMVB_continue3_single
   0764 FB 01 D3           1747 	.byte -0x05, 0x01, -0x2D
   0767 5A 01 00           1748 	.byte  0x5A, 0x01,  0x00
   076A 00 01 1E           1749 	.byte  0x00, 0x01,  0x1E
   076D 00 80              1750 	.word SMVB_continue_yd4_newY_eq_oldX_single ; y is  0x00
   076F E0 01 8B           1751 	.byte -0x20, 0x01, -0x75
   0772 01 A8              1752 	.word SMVB_startMove_double
   0774 BF 01 19           1753 	.byte -0x41, 0x01,  0x19
   0777 02 C5              1754 	.word SMVB_startDraw_single
   0779 14 01 D3           1755 	.byte  0x14, 0x01, -0x2D
   077C 00 64              1756 	.word SMVB_continue2_single
   077E 2D 01 14           1757 	.byte  0x2D, 0x01,  0x14
   0781 40 00 00           1758 	.byte  0x40, 0x00,  0x00
   0784 03 BC              1759 	.word SMVB_lastDraw_rts
ASxxxx Assembler V05.00  (Motorola 6809), page 1.
Hexidecimal [16-Bits]

Symbol Table

    .__.$$$.       =   2710 L   |     .__.ABS.       =   0000 G
    .__.CPU.       =   0000 L   |     .__.H$L.       =   0001 L
  2 A$titleScenari     029A GR  |   2 A$titleScenari     029C GR
  2 A$titleScenari     029E GR  |   2 A$titleScenari     02A0 GR
  2 A$titleScenari     02A1 GR  |   2 A$titleScenari     02A3 GR
  2 A$titleScenari     02A5 GR  |   2 A$titleScenari     02A7 GR
  2 A$titleScenari     02A9 GR  |   2 A$titleScenari     02AB GR
  2 A$titleScenari     02AD GR  |   2 A$titleScenari     02AF GR
  2 A$titleScenari     02B1 GR  |   2 A$titleScenari     02B2 GR
  2 A$titleScenari     02B5 GR  |   2 A$titleScenari     02B7 GR
  2 A$titleScenari     02B9 GR  |   2 A$titleScenari     02BB GR
  2 A$titleScenari     02BD GR  |   2 A$titleScenari     02BF GR
  2 A$titleScenari     02C1 GR  |   2 A$titleScenari     02C2 GR
  2 A$titleScenari     02C5 GR  |   2 A$titleScenari     02C7 GR
  2 A$titleScenari     02C9 GR  |   2 A$titleScenari     02CB GR
  2 A$titleScenari     02CD GR  |   2 A$titleScenari     02CF GR
  2 A$titleScenari     02D1 GR  |   2 A$titleScenari     02D2 GR
  2 A$titleScenari     02D4 GR  |   2 A$titleScenari     02D6 GR
  2 A$titleScenari     02D8 GR  |   2 A$titleScenari     02DA GR
  2 A$titleScenari     02DC GR  |   2 A$titleScenari     02DE GR
  2 A$titleScenari     02E0 GR  |   2 A$titleScenari     02E1 GR
  2 A$titleScenari     02E3 GR  |   2 A$titleScenari     02E5 GR
  2 A$titleScenari     02E7 GR  |   2 A$titleScenari     02E9 GR
  2 A$titleScenari     02EB GR  |   2 A$titleScenari     02ED GR
  2 A$titleScenari     02EF GR  |   2 A$titleScenari     02F1 GR
  2 A$titleScenari     02F2 GR  |   2 A$titleScenari     02F4 GR
  2 A$titleScenari     02F6 GR  |   2 A$titleScenari     02F8 GR
  2 A$titleScenari     02FA GR  |   2 A$titleScenari     02FC GR
  2 A$titleScenari     02FE GR  |   2 A$titleScenari     0300 GR
  2 A$titleScenari     0302 GR  |   2 A$titleScenari     0303 GR
  2 A$titleScenari     0305 GR  |   2 A$titleScenari     0307 GR
  2 A$titleScenari     0309 GR  |   2 A$titleScenari     030A GR
  2 A$titleScenari     030C GR  |   2 A$titleScenari     030E GR
  2 A$titleScenari     0310 GR  |   2 A$titleScenari     0311 GR
  2 A$titleScenari     0313 GR  |   2 A$titleScenari     0315 GR
  2 A$titleScenari     0317 GR  |   2 A$titleScenari     0318 GR
  2 A$titleScenari     031A GR  |   2 A$titleScenari     031C GR
  2 A$titleScenari     031E GR  |   2 A$titleScenari     031F GR
  2 A$titleScenari     0322 GR  |   2 A$titleScenari     0324 GR
  2 A$titleScenari     0326 GR  |   2 A$titleScenari     0327 GR
  2 A$titleScenari     0329 GR  |   2 A$titleScenari     032B GR
  2 A$titleScenari     032D GR  |   2 A$titleScenari     032E GR
  2 A$titleScenari     0331 GR  |   2 A$titleScenari     0333 GR
  2 A$titleScenari     0335 GR  |   2 A$titleScenari     0336 GR
  2 A$titleScenari     0338 GR  |   2 A$titleScenari     033A GR
  2 A$titleScenari     033C GR  |   2 A$titleScenari     033D GR
  2 A$titleScenari     0340 GR  |   2 A$titleScenari     0342 GR
  2 A$titleScenari     0344 GR  |   2 A$titleScenari     0345 GR
  2 A$titleScenari     0347 GR  |   2 A$titleScenari     0349 GR
  2 A$titleScenari     034B GR  |   2 A$titleScenari     034C GR
  2 A$titleScenari     034F GR  |   2 A$titleScenari     0351 GR
  2 A$titleScenari     0353 GR  |   2 A$titleScenari     0354 GR
  2 A$titleScenari     0356 GR  |   2 A$titleScenari     0358 GR
  2 A$titleScenari     035A GR  |   2 A$titleScenari     035B GR
  2 A$titleScenari     035D GR  |   2 A$titleScenari     035F GR
  2 A$titleScenari     0361 GR  |   2 A$titleScenari     0362 GR
  2 A$titleScenari     0364 GR  |   2 A$titleScenari     0366 GR
  2 A$titleScenari     0368 GR  |   2 A$titleScenari     0369 GR
  2 A$titleScenari     036B GR  |   2 A$titleScenari     036D GR
  2 A$titleScenari     036F GR  |   2 A$titleScenari     0370 GR
  2 A$titleScenari     0372 GR  |   2 A$titleScenari     0374 GR
  2 A$titleScenari     0376 GR  |   2 A$titleScenari     0378 GR
  2 A$titleScenari     0379 GR  |   2 A$titleScenari     037A GR
  2 A$titleScenari     037C GR  |   2 A$titleScenari     037E GR
  2 A$titleScenari     0380 GR  |   2 A$titleScenari     0381 GR
  2 A$titleScenari     0383 GR  |   2 A$titleScenari     0385 GR
  2 A$titleScenari     0387 GR  |   2 A$titleScenari     0389 GR
  2 A$titleScenari     038B GR  |   2 A$titleScenari     038C GR
  2 A$titleScenari     038E GR  |   2 A$titleScenari     0390 GR
  2 A$titleScenari     0391 GR  |   2 A$titleScenari     0393 GR
  2 A$titleScenari     0395 GR  |   2 A$titleScenari     0397 GR
  2 A$titleScenari     0399 GR  |   2 A$titleScenari     039B GR
  2 A$titleScenari     039D GR  |   2 A$titleScenari     039E GR
  2 A$titleScenari     03A0 GR  |   2 A$titleScenari     03A2 GR
  2 A$titleScenari     03A4 GR  |   2 A$titleScenari     03A6 GR
  2 A$titleScenari     03A8 GR  |   2 A$titleScenari     03AA GR
  2 A$titleScenari     03AB GR  |   2 A$titleScenari     03AD GR
  2 A$titleScenari     03AF GR  |   2 A$titleScenari     03B1 GR
  2 A$titleScenari     03B3 GR  |   2 A$titleScenari     03B5 GR
  2 A$titleScenari     03B7 GR  |   2 A$titleScenari     03B8 GR
  2 A$titleScenari     03BA GR  |   2 A$titleScenari     03BC GR
  2 A$titleScenari     03BE GR  |   2 A$titleScenari     03C0 GR
  2 A$titleScenari     03C2 GR  |   2 A$titleScenari     03C4 GR
  2 A$titleScenari     03C6 GR  |   2 A$titleScenari     03C9 GR
  2 A$titleScenari     03CC GR  |   2 A$titleScenari     03CE GR
  2 A$titleScenari     0019 GR  |   2 A$titleScenari     03CF GR
  2 A$titleScenari     03D0 GR  |   2 A$titleScenari     03D2 GR
  2 A$titleScenari     03D4 GR  |   2 A$titleScenari     03D6 GR
  2 A$titleScenari     03D7 GR  |   2 A$titleScenari     001A GR
  2 A$titleScenari     03D8 GR  |   2 A$titleScenari     03DA GR
  2 A$titleScenari     03DC GR  |   2 A$titleScenari     03DE GR
  2 A$titleScenari     03E0 GR  |   2 A$titleScenari     03E2 GR
  2 A$titleScenari     03E4 GR  |   2 A$titleScenari     03E5 GR
  2 A$titleScenari     03E7 GR  |   2 A$titleScenari     03E9 GR
  2 A$titleScenari     03EB GR  |   2 A$titleScenari     03ED GR
  2 A$titleScenari     03F0 GR  |   2 A$titleScenari     03F3 GR
  2 A$titleScenari     001C GR  |   2 A$titleScenari     001E GR
  2 A$titleScenari     0020 GR  |   2 A$titleScenari     0021 GR
  2 A$titleScenari     0023 GR  |   2 A$titleScenari     0025 GR
  2 A$titleScenari     0027 GR  |   2 A$titleScenari     0028 GR
  2 A$titleScenari     0029 GR  |   2 A$titleScenari     002B GR
  2 A$titleScenari     002D GR  |   2 A$titleScenari     002E GR
  2 A$titleScenari     0030 GR  |   2 A$titleScenari     0032 GR
  2 A$titleScenari     0034 GR  |   2 A$titleScenari     0035 GR
  2 A$titleScenari     0036 GR  |   2 A$titleScenari     0038 GR
  2 A$titleScenari     003A GR  |   2 A$titleScenari     003B GR
  2 A$titleScenari     003D GR  |   2 A$titleScenari     003F GR
  2 A$titleScenari     0041 GR  |   2 A$titleScenari     0042 GR
  2 A$titleScenari     0043 GR  |   2 A$titleScenari     0045 GR
  2 A$titleScenari     0047 GR  |   2 A$titleScenari     0048 GR
  2 A$titleScenari     004A GR  |   2 A$titleScenari     004C GR
  2 A$titleScenari     004E GR  |   2 A$titleScenari     004F GR
  2 A$titleScenari     0050 GR  |   2 A$titleScenari     0052 GR
  2 A$titleScenari     0054 GR  |   2 A$titleScenari     0055 GR
  2 A$titleScenari     0057 GR  |   2 A$titleScenari     0059 GR
  2 A$titleScenari     005B GR  |   2 A$titleScenari     005C GR
  2 A$titleScenari     005D GR  |   2 A$titleScenari     005F GR
  2 A$titleScenari     0061 GR  |   2 A$titleScenari     0062 GR
  2 A$titleScenari     0064 GR  |   2 A$titleScenari     0066 GR
  2 A$titleScenari     0068 GR  |   2 A$titleScenari     0069 GR
  2 A$titleScenari     006A GR  |   2 A$titleScenari     006C GR
  2 A$titleScenari     006E GR  |   2 A$titleScenari     006F GR
  2 A$titleScenari     0071 GR  |   2 A$titleScenari     0073 GR
  2 A$titleScenari     0075 GR  |   2 A$titleScenari     0076 GR
  2 A$titleScenari     0077 GR  |   2 A$titleScenari     0079 GR
  2 A$titleScenari     007B GR  |   2 A$titleScenari     007C GR
  2 A$titleScenari     007E GR  |   2 A$titleScenari     0080 GR
  2 A$titleScenari     0082 GR  |   2 A$titleScenari     0083 GR
  2 A$titleScenari     0084 GR  |   2 A$titleScenari     0086 GR
  2 A$titleScenari     0088 GR  |   2 A$titleScenari     0089 GR
  2 A$titleScenari     008B GR  |   2 A$titleScenari     008D GR
  2 A$titleScenari     008F GR  |   2 A$titleScenari     0090 GR
  2 A$titleScenari     0091 GR  |   2 A$titleScenari     0093 GR
  2 A$titleScenari     0095 GR  |   2 A$titleScenari     0096 GR
  2 A$titleScenari     0098 GR  |   2 A$titleScenari     009A GR
  2 A$titleScenari     009C GR  |   2 A$titleScenari     009E GR
  2 A$titleScenari     009F GR  |   2 A$titleScenari     00A1 GR
  2 A$titleScenari     00A3 GR  |   2 A$titleScenari     00A4 GR
  2 A$titleScenari     00A6 GR  |   2 A$titleScenari     00A8 GR
  2 A$titleScenari     00AA GR  |   2 A$titleScenari     00AB GR
  2 A$titleScenari     00AD GR  |   2 A$titleScenari     00AF GR
  2 A$titleScenari     00B0 GR  |   2 A$titleScenari     00B2 GR
  2 A$titleScenari     00B4 GR  |   2 A$titleScenari     00B6 GR
  2 A$titleScenari     00B7 GR  |   2 A$titleScenari     00B8 GR
  2 A$titleScenari     00BA GR  |   2 A$titleScenari     00BC GR
  2 A$titleScenari     00BD GR  |   2 A$titleScenari     00C0 GR
  2 A$titleScenari     00C2 GR  |   2 A$titleScenari     00C4 GR
  2 A$titleScenari     00C5 GR  |   2 A$titleScenari     00C6 GR
  2 A$titleScenari     00C8 GR  |   2 A$titleScenari     00CA GR
  2 A$titleScenari     00CB GR  |   2 A$titleScenari     00CE GR
  2 A$titleScenari     00D0 GR  |   2 A$titleScenari     00D2 GR
  2 A$titleScenari     00D3 GR  |   2 A$titleScenari     00D4 GR
  2 A$titleScenari     00D6 GR  |   2 A$titleScenari     00D8 GR
  2 A$titleScenari     00D9 GR  |   2 A$titleScenari     00DC GR
  2 A$titleScenari     00DE GR  |   2 A$titleScenari     00E0 GR
  2 A$titleScenari     00E1 GR  |   2 A$titleScenari     00E2 GR
  2 A$titleScenari     00E4 GR  |   2 A$titleScenari     00E6 GR
  2 A$titleScenari     00E7 GR  |   2 A$titleScenari     00E9 GR
  2 A$titleScenari     00EB GR  |   2 A$titleScenari     00EC GR
  2 A$titleScenari     00ED GR  |   2 A$titleScenari     00EF GR
  2 A$titleScenari     00F0 GR  |   2 A$titleScenari     00F2 GR
  2 A$titleScenari     00F4 GR  |   2 A$titleScenari     00F5 GR
  2 A$titleScenari     00F6 GR  |   2 A$titleScenari     00F8 GR
  2 A$titleScenari     00F9 GR  |   2 A$titleScenari     00FB GR
  2 A$titleScenari     00FD GR  |   2 A$titleScenari     00FE GR
  2 A$titleScenari     00FF GR  |   2 A$titleScenari     0101 GR
  2 A$titleScenari     0102 GR  |   2 A$titleScenari     0104 GR
  2 A$titleScenari     0106 GR  |   2 A$titleScenari     0107 GR
  2 A$titleScenari     0108 GR  |   2 A$titleScenari     010A GR
  2 A$titleScenari     010B GR  |   2 A$titleScenari     010D GR
  2 A$titleScenari     010F GR  |   2 A$titleScenari     0110 GR
  2 A$titleScenari     0111 GR  |   2 A$titleScenari     0113 GR
  2 A$titleScenari     0114 GR  |   2 A$titleScenari     0116 GR
  2 A$titleScenari     0118 GR  |   2 A$titleScenari     0119 GR
  2 A$titleScenari     011A GR  |   2 A$titleScenari     011C GR
  2 A$titleScenari     011D GR  |   2 A$titleScenari     0120 GR
  2 A$titleScenari     0122 GR  |   2 A$titleScenari     0124 GR
  2 A$titleScenari     0125 GR  |   2 A$titleScenari     0127 GR
  2 A$titleScenari     0129 GR  |   2 A$titleScenari     012B GR
  2 A$titleScenari     012C GR  |   2 A$titleScenari     012D GR
  2 A$titleScenari     012F GR  |   2 A$titleScenari     0131 GR
  2 A$titleScenari     0132 GR  |   2 A$titleScenari     0135 GR
  2 A$titleScenari     0137 GR  |   2 A$titleScenari     0139 GR
  2 A$titleScenari     013A GR  |   2 A$titleScenari     013B GR
  2 A$titleScenari     013D GR  |   2 A$titleScenari     013F GR
  2 A$titleScenari     0140 GR  |   2 A$titleScenari     0143 GR
  2 A$titleScenari     0145 GR  |   2 A$titleScenari     0147 GR
  2 A$titleScenari     0148 GR  |   2 A$titleScenari     0149 GR
  2 A$titleScenari     014B GR  |   2 A$titleScenari     014D GR
  2 A$titleScenari     014E GR  |   2 A$titleScenari     0151 GR
  2 A$titleScenari     0153 GR  |   2 A$titleScenari     0155 GR
  2 A$titleScenari     0156 GR  |   2 A$titleScenari     0157 GR
  2 A$titleScenari     0159 GR  |   2 A$titleScenari     0000 GR
  2 A$titleScenari     015B GR  |   2 A$titleScenari     015C GR
  2 A$titleScenari     015F GR  |   2 A$titleScenari     0161 GR
  2 A$titleScenari     0163 GR  |   2 A$titleScenari     0164 GR
  2 A$titleScenari     0165 GR  |   2 A$titleScenari     0167 GR
  2 A$titleScenari     0169 GR  |   2 A$titleScenari     016A GR
  2 A$titleScenari     016D GR  |   2 A$titleScenari     016F GR
  2 A$titleScenari     0171 GR  |   2 A$titleScenari     0172 GR
  2 A$titleScenari     0173 GR  |   2 A$titleScenari     0175 GR
  2 A$titleScenari     0000 GR  |   2 A$titleScenari     0177 GR
  2 A$titleScenari     0178 GR  |   2 A$titleScenari     017B GR
  2 A$titleScenari     017D GR  |   2 A$titleScenari     017F GR
  2 A$titleScenari     0181 GR  |   2 A$titleScenari     0183 GR
  2 A$titleScenari     0185 GR  |   2 A$titleScenari     0187 GR
  2 A$titleScenari     0188 GR  |   2 A$titleScenari     018A GR
  2 A$titleScenari     018C GR  |   2 A$titleScenari     018E GR
  2 A$titleScenari     0002 GR  |   2 A$titleScenari     0190 GR
  2 A$titleScenari     0192 GR  |   2 A$titleScenari     0194 GR
  2 A$titleScenari     0196 GR  |   2 A$titleScenari     0197 GR
  2 A$titleScenari     0199 GR  |   2 A$titleScenari     019B GR
  2 A$titleScenari     019D GR  |   2 A$titleScenari     019F GR
  2 A$titleScenari     01A1 GR  |   2 A$titleScenari     01A3 GR
  2 A$titleScenari     01A5 GR  |   2 A$titleScenari     01A6 GR
  2 A$titleScenari     0006 GR  |   2 A$titleScenari     01A8 GR
  2 A$titleScenari     01AA GR  |   2 A$titleScenari     01AC GR
  2 A$titleScenari     0008 GR  |   2 A$titleScenari     01AE GR
  2 A$titleScenari     01B0 GR  |   2 A$titleScenari     01B2 GR
  2 A$titleScenari     01B4 GR  |   2 A$titleScenari     01B5 GR
  2 A$titleScenari     000B GR  |   2 A$titleScenari     01B8 GR
  2 A$titleScenari     01BA GR  |   2 A$titleScenari     01BC GR
  2 A$titleScenari     01BE GR  |   2 A$titleScenari     000D GR
  2 A$titleScenari     01C0 GR  |   2 A$titleScenari     01C2 GR
  2 A$titleScenari     01C4 GR  |   2 A$titleScenari     01C5 GR
  2 A$titleScenari     000F GR  |   2 A$titleScenari     01C8 GR
  2 A$titleScenari     01CA GR  |   2 A$titleScenari     01CC GR
  2 A$titleScenari     01CE GR  |   2 A$titleScenari     01D0 GR
  2 A$titleScenari     01D2 GR  |   2 A$titleScenari     0011 GR
  2 A$titleScenari     01D4 GR  |   2 A$titleScenari     01D5 GR
  2 A$titleScenari     01D8 GR  |   2 A$titleScenari     01DA GR
  2 A$titleScenari     01DC GR  |   2 A$titleScenari     01DE GR
  2 A$titleScenari     0013 GR  |   2 A$titleScenari     01E0 GR
  2 A$titleScenari     01E2 GR  |   2 A$titleScenari     01E4 GR
  2 A$titleScenari     01E5 GR  |   2 A$titleScenari     0015 GR
  2 A$titleScenari     01E8 GR  |   2 A$titleScenari     01EA GR
  2 A$titleScenari     01EC GR  |   2 A$titleScenari     01EE GR
  2 A$titleScenari     01F0 GR  |   2 A$titleScenari     01F2 GR
  2 A$titleScenari     01F4 GR  |   2 A$titleScenari     01F5 GR
  2 A$titleScenari     01F8 GR  |   2 A$titleScenari     01FA GR
  2 A$titleScenari     01FC GR  |   2 A$titleScenari     01FE GR
  2 A$titleScenari     0200 GR  |   2 A$titleScenari     0202 GR
  2 A$titleScenari     0204 GR  |   2 A$titleScenari     0205 GR
  2 A$titleScenari     0017 GR  |   2 A$titleScenari     0208 GR
  2 A$titleScenari     020A GR  |   2 A$titleScenari     020C GR
  2 A$titleScenari     020E GR  |   2 A$titleScenari     0210 GR
  2 A$titleScenari     0212 GR  |   2 A$titleScenari     0214 GR
  2 A$titleScenari     0215 GR  |   2 A$titleScenari     0217 GR
  2 A$titleScenari     0219 GR  |   2 A$titleScenari     021B GR
  2 A$titleScenari     021D GR  |   2 A$titleScenari     021F GR
  2 A$titleScenari     0221 GR  |   2 A$titleScenari     0223 GR
  2 A$titleScenari     0224 GR  |   2 A$titleScenari     0226 GR
  2 A$titleScenari     0228 GR  |   2 A$titleScenari     0229 GR
  2 A$titleScenari     022A GR  |   2 A$titleScenari     022C GR
  2 A$titleScenari     022D GR  |   2 A$titleScenari     022F GR
  2 A$titleScenari     0231 GR  |   2 A$titleScenari     0232 GR
  2 A$titleScenari     0233 GR  |   2 A$titleScenari     0235 GR
  2 A$titleScenari     0236 GR  |   2 A$titleScenari     0239 GR
  2 A$titleScenari     023B GR  |   2 A$titleScenari     023D GR
  2 A$titleScenari     023F GR  |   2 A$titleScenari     0241 GR
  2 A$titleScenari     0243 GR  |   2 A$titleScenari     0245 GR
  2 A$titleScenari     0246 GR  |   2 A$titleScenari     0249 GR
  2 A$titleScenari     024B GR  |   2 A$titleScenari     024D GR
  2 A$titleScenari     024F GR  |   2 A$titleScenari     0251 GR
  2 A$titleScenari     0253 GR  |   2 A$titleScenari     0255 GR
  2 A$titleScenari     0256 GR  |   2 A$titleScenari     0259 GR
  2 A$titleScenari     025B GR  |   2 A$titleScenari     025D GR
  2 A$titleScenari     025E GR  |   2 A$titleScenari     0260 GR
  2 A$titleScenari     0262 GR  |   2 A$titleScenari     0264 GR
  2 A$titleScenari     0266 GR  |   2 A$titleScenari     0268 GR
  2 A$titleScenari     026A GR  |   2 A$titleScenari     026C GR
  2 A$titleScenari     026D GR  |   2 A$titleScenari     026F GR
  2 A$titleScenari     0271 GR  |   2 A$titleScenari     0272 GR
  2 A$titleScenari     0274 GR  |   2 A$titleScenari     0276 GR
  2 A$titleScenari     0278 GR  |   2 A$titleScenari     027A GR
  2 A$titleScenari     027C GR  |   2 A$titleScenari     027D GR
  2 A$titleScenari     027F GR  |   2 A$titleScenari     0281 GR
  2 A$titleScenari     0283 GR  |   2 A$titleScenari     0285 GR
  2 A$titleScenari     0287 GR  |   2 A$titleScenari     0288 GR
  2 A$titleScenari     028A GR  |   2 A$titleScenari     028C GR
  2 A$titleScenari     028E GR  |   2 A$titleScenari     0290 GR
  2 A$titleScenari     0291 GR  |   2 A$titleScenari     0293 GR
  2 A$titleScenari     0295 GR  |   2 A$titleScenari     0297 GR
  2 A$titleScenari     0298 GR  |     Intensity_5F   =   F2A5 
    Joy_Digital    =   F1F8     |     Moveto_d       =   F312 
    SHITREG_POKE_V =   0001     |   2 SMVB_FlagWait      03BC GR
  2 SMVB_FlagWait3     03D0 GR  |   2 SMVB_FlagWait3     03DC GR
  2 SMVB_continue2     0064 GR  |   2 SMVB_continue3     0057 GR
  2 SMVB_continue4     004A GR  |   2 SMVB_continue5     003D GR
  2 SMVB_continue6     0030 GR  |   2 SMVB_continue7     0023 GR
  2 SMVB_continue_     0127 GR  |   2 SMVB_continue_     00CE GR
  2 SMVB_continue_     0073 GR  |   2 SMVB_continue_     008D GR
  2 SMVB_continue_     00DC GR  |   2 SMVB_continue_     00C0 GR
  2 SMVB_continue_     0071 GR  |   2 SMVB_continue_     008B GR
  2 SMVB_continue_     00B2 GR  |   2 SMVB_continue_     00A6 GR
  2 SMVB_continue_     001C GR  |   2 SMVB_continue_     0135 GR
  2 SMVB_continue_     0151 GR  |   2 SMVB_continue_     0080 GR
  2 SMVB_continue_     0143 GR  |   2 SMVB_continue_     015F GR
  2 SMVB_continue_     007E GR  |   2 SMVB_continue_     016D GR
  2 SMVB_continue_     009A GR  |   2 SMVB_continue_     001C GR
  2 SMVB_lastDraw_     03BC GR  |   2 SMVB_lastDraw_     03E4 GR
  2 SMVB_lastDraw_     03CF GR  |   2 SMVB_lastMove_     03DA GR
  2 SMVB_repeat_sa     0120 GR  |   2 SMVB_repeat_sa     0259 GR
  2 SMVB_rts           03C2 GR  |   2 SMVB_rts2          03EB GR
  2 SMVB_startDraw     01C8 GR  |   2 SMVB_startDraw     01F8 GR
  2 SMVB_startDraw     03A0 GR  |   2 SMVB_startDraw     03AD GR
  2 SMVB_startDraw     01D8 GR  |   2 SMVB_startDraw     01E8 GR
  2 SMVB_startDraw     02C5 GR  |   2 SMVB_startDraw     02D4 GR
  2 SMVB_startDraw     01B8 GR  |   2 SMVB_startDraw     0293 GR
  2 SMVB_startDraw     02F6 GR  |   2 SMVB_startDraw     02E5 GR
  2 SMVB_startDraw     028A GR  |   2 SMVB_startDraw     029A GR
  2 SMVB_startDraw     02A5 GR  |   2 SMVB_startDraw     02B5 GR
  2 SMVB_startDraw     02C5 GR  |   2 SMVB_startDraw     01B8 GR
  2 SMVB_startDraw     02F6 GR  |   2 SMVB_startMove     01A8 GR
  2 SMVB_startMove     0260 GR  |   2 SMVB_startMove     0249 GR
  2 SMVB_startMove     0385 GR  |   2 SMVB_startMove     0393 GR
  2 SMVB_startMove     0239 GR  |   2 SMVB_startMove     0217 GR
  2 SMVB_startMove     017B GR  |   2 SMVB_startMove     018A GR
  2 SMVB_startMove     0208 GR  |   2 SMVB_startMove     035D GR
  2 SMVB_startMove     0305 GR  |   2 SMVB_startMove     0364 GR
  2 SMVB_startMove     0274 GR  |   2 SMVB_startMove     027F GR
  2 SMVB_startMove     01A8 GR  |   2 SMVB_startMove     0313 GR
  2 SMVB_startMove     0385 GR  |   2 SMVB_startMove     0322 GR
  2 SMVB_startMove     0331 GR  |   2 SMVB_startMove     017B GR
  2 SMVB_startMove     0199 GR  |   2 SMVB_startMove     0340 GR
  2 SMVB_startMove     034F GR  |   2 SMVB_startMove     0374 GR
    SPRITE_SCALE   =   0009     |     VB_SPRITE_SCAL =   0009 
    VIA_cntl       =   D00C     |     VIA_int_flags  =   D00D 
    VIA_port_a     =   D001     |     VIA_port_b     =   D000 
    VIA_shift_reg  =   D00A     |     VIA_t1_cnt_hi  =   D005 
    VIA_t1_cnt_lo  =   D004     |     Vec_Joy_1_X    =   C81B 
    Vec_Pattern    =   C829     |     Wait_Recal     =   F192 
  2 __SMVB_sceneDa     03F5 GR  |   2 _drawTitle         0000 GR
  2 _telengard_0       03FD GR  |   2 _telengard_1       0518 GR
  2 _telengard_2       0649 GR  |   2 cont2              0116 GR
  2 cont3              010D GR  |   2 cont4              0104 GR
  2 cont5              00FB GR  |   2 cont6              00F2 GR
  2 cont7              00E9 GR  |   2 drawSmart          0019 GR
  2 drawTtileDone      0017 GR  |   2 here104            00F0 GR
  2 here108            00F2 GR  |   2 here113            00F9 GR
  2 here117            00FB GR  |   2 here122            0102 GR
  2 here126            0104 GR  |   2 here131            010B GR
  2 here135            010D GR  |   2 here140            0114 GR
  2 here144            0116 GR  |   2 here224            0226 GR
  2 here229            022D GR  |   2 here233            022F GR
  2 here95             00E7 GR  |   2 here99             00E9 GR
  2 move2              022F GR  |   2 move3              0226 GR
    music1         =   FD0D     |   2 nextScenePart      0006 GR
  2 redoFromStart      0002 GR

ASxxxx Assembler V05.00  (Motorola 6809), page 2.
Hexidecimal [16-Bits]

Area Table

[_CSEG]
   0 _CODE            size    0   flags C080
   2 .text            size  786   flags  100
[_DSEG]
   1 _DATA            size    0   flags C0C0

